ARM GAS  C:\Users\bogda\AppData\Local\Temp\ccSIJY9Y.s 			page 1


   1              		.syntax unified
   2              		.cpu cortex-m0
   3              		.fpu softvfp
   4              		.eabi_attribute 20, 1
   5              		.eabi_attribute 21, 1
   6              		.eabi_attribute 23, 3
   7              		.eabi_attribute 24, 1
   8              		.eabi_attribute 25, 1
   9              		.eabi_attribute 26, 1
  10              		.eabi_attribute 30, 1
  11              		.eabi_attribute 34, 0
  12              		.eabi_attribute 18, 4
  13              		.thumb
  14              		.syntax unified
  15              		.file	"cyfitter_cfg.c"
  16              		.text
  17              	.Ltext0:
  18              		.cfi_sections	.debug_frame
  19              		.section	.text.cfg_write_bytes32,"ax",%progbits
  20              		.align	2
  21              		.code	16
  22              		.thumb_func
  23              		.type	cfg_write_bytes32, %function
  24              	cfg_write_bytes32:
  25              	.LFB5:
  26              		.file 1 "Generated_Source\\PSoC4\\cyfitter_cfg.c"
   1:Generated_Source\PSoC4/cyfitter_cfg.c **** 
   2:Generated_Source\PSoC4/cyfitter_cfg.c **** /*******************************************************************************
   3:Generated_Source\PSoC4/cyfitter_cfg.c **** * File Name: cyfitter_cfg.c
   4:Generated_Source\PSoC4/cyfitter_cfg.c **** * 
   5:Generated_Source\PSoC4/cyfitter_cfg.c **** * PSoC Creator  4.4
   6:Generated_Source\PSoC4/cyfitter_cfg.c **** *
   7:Generated_Source\PSoC4/cyfitter_cfg.c **** * Description:
   8:Generated_Source\PSoC4/cyfitter_cfg.c **** * This file contains device initialization code.
   9:Generated_Source\PSoC4/cyfitter_cfg.c **** * Except for the user defined sections in CyClockStartupError(), this file should not be modified.
  10:Generated_Source\PSoC4/cyfitter_cfg.c **** * This file is automatically generated by PSoC Creator.
  11:Generated_Source\PSoC4/cyfitter_cfg.c **** *
  12:Generated_Source\PSoC4/cyfitter_cfg.c **** ********************************************************************************
  13:Generated_Source\PSoC4/cyfitter_cfg.c **** * Copyright (c) 2007-2020 Cypress Semiconductor.  All rights reserved.
  14:Generated_Source\PSoC4/cyfitter_cfg.c **** * You may use this file only in accordance with the license, terms, conditions, 
  15:Generated_Source\PSoC4/cyfitter_cfg.c **** * disclaimers, and limitations in the end user license agreement accompanying 
  16:Generated_Source\PSoC4/cyfitter_cfg.c **** * the software package with which this file was provided.
  17:Generated_Source\PSoC4/cyfitter_cfg.c **** ********************************************************************************/
  18:Generated_Source\PSoC4/cyfitter_cfg.c **** 
  19:Generated_Source\PSoC4/cyfitter_cfg.c **** #include <string.h>
  20:Generated_Source\PSoC4/cyfitter_cfg.c **** #include "cytypes.h"
  21:Generated_Source\PSoC4/cyfitter_cfg.c **** #include "cydevice_trm.h"
  22:Generated_Source\PSoC4/cyfitter_cfg.c **** #include "cyfitter.h"
  23:Generated_Source\PSoC4/cyfitter_cfg.c **** #include "CyLib.h"
  24:Generated_Source\PSoC4/cyfitter_cfg.c **** #include "CyLFClk.h"
  25:Generated_Source\PSoC4/cyfitter_cfg.c **** #include "cyfitter_cfg.h"
  26:Generated_Source\PSoC4/cyfitter_cfg.c **** #include "cyapicallbacks.h"
  27:Generated_Source\PSoC4/cyfitter_cfg.c **** 
  28:Generated_Source\PSoC4/cyfitter_cfg.c **** 
  29:Generated_Source\PSoC4/cyfitter_cfg.c **** #if defined(__GNUC__) || defined(__ARMCC_VERSION)
  30:Generated_Source\PSoC4/cyfitter_cfg.c ****     #define CYPACKED 
  31:Generated_Source\PSoC4/cyfitter_cfg.c ****     #define CYPACKED_ATTR __attribute__ ((packed))
ARM GAS  C:\Users\bogda\AppData\Local\Temp\ccSIJY9Y.s 			page 2


  32:Generated_Source\PSoC4/cyfitter_cfg.c ****     #define CYALIGNED __attribute__ ((aligned))
  33:Generated_Source\PSoC4/cyfitter_cfg.c ****     #define CY_CFG_UNUSED __attribute__ ((unused))
  34:Generated_Source\PSoC4/cyfitter_cfg.c ****     #ifndef CY_CFG_SECTION
  35:Generated_Source\PSoC4/cyfitter_cfg.c ****         #define CY_CFG_SECTION __attribute__ ((section(".psocinit")))
  36:Generated_Source\PSoC4/cyfitter_cfg.c ****     #endif
  37:Generated_Source\PSoC4/cyfitter_cfg.c ****     
  38:Generated_Source\PSoC4/cyfitter_cfg.c ****     #if defined(__ARMCC_VERSION)
  39:Generated_Source\PSoC4/cyfitter_cfg.c ****         #define CY_CFG_MEMORY_BARRIER() __memory_changed()
  40:Generated_Source\PSoC4/cyfitter_cfg.c ****     #else
  41:Generated_Source\PSoC4/cyfitter_cfg.c ****         #define CY_CFG_MEMORY_BARRIER() __sync_synchronize()
  42:Generated_Source\PSoC4/cyfitter_cfg.c ****     #endif
  43:Generated_Source\PSoC4/cyfitter_cfg.c ****     
  44:Generated_Source\PSoC4/cyfitter_cfg.c **** #elif defined(__ICCARM__)
  45:Generated_Source\PSoC4/cyfitter_cfg.c ****     #include <intrinsics.h>
  46:Generated_Source\PSoC4/cyfitter_cfg.c **** 
  47:Generated_Source\PSoC4/cyfitter_cfg.c ****     #define CYPACKED __packed
  48:Generated_Source\PSoC4/cyfitter_cfg.c ****     #define CYPACKED_ATTR 
  49:Generated_Source\PSoC4/cyfitter_cfg.c ****     #define CYALIGNED _Pragma("data_alignment=4")
  50:Generated_Source\PSoC4/cyfitter_cfg.c ****     #define CY_CFG_UNUSED _Pragma("diag_suppress=Pe177")
  51:Generated_Source\PSoC4/cyfitter_cfg.c ****     #define CY_CFG_SECTION _Pragma("location=\".psocinit\"")
  52:Generated_Source\PSoC4/cyfitter_cfg.c ****     
  53:Generated_Source\PSoC4/cyfitter_cfg.c ****     #define CY_CFG_MEMORY_BARRIER() __DMB()
  54:Generated_Source\PSoC4/cyfitter_cfg.c ****     
  55:Generated_Source\PSoC4/cyfitter_cfg.c **** #else
  56:Generated_Source\PSoC4/cyfitter_cfg.c ****     #error Unsupported toolchain
  57:Generated_Source\PSoC4/cyfitter_cfg.c **** #endif
  58:Generated_Source\PSoC4/cyfitter_cfg.c **** 
  59:Generated_Source\PSoC4/cyfitter_cfg.c **** #ifndef CYCODE
  60:Generated_Source\PSoC4/cyfitter_cfg.c ****     #define CYCODE
  61:Generated_Source\PSoC4/cyfitter_cfg.c **** #endif
  62:Generated_Source\PSoC4/cyfitter_cfg.c **** #ifndef CYDATA
  63:Generated_Source\PSoC4/cyfitter_cfg.c ****     #define CYDATA
  64:Generated_Source\PSoC4/cyfitter_cfg.c **** #endif
  65:Generated_Source\PSoC4/cyfitter_cfg.c **** #ifndef CYFAR
  66:Generated_Source\PSoC4/cyfitter_cfg.c ****     #define CYFAR
  67:Generated_Source\PSoC4/cyfitter_cfg.c **** #endif
  68:Generated_Source\PSoC4/cyfitter_cfg.c **** #ifndef CYXDATA
  69:Generated_Source\PSoC4/cyfitter_cfg.c ****     #define CYXDATA
  70:Generated_Source\PSoC4/cyfitter_cfg.c **** #endif
  71:Generated_Source\PSoC4/cyfitter_cfg.c **** 
  72:Generated_Source\PSoC4/cyfitter_cfg.c **** 
  73:Generated_Source\PSoC4/cyfitter_cfg.c **** CY_CFG_UNUSED
  74:Generated_Source\PSoC4/cyfitter_cfg.c **** static void CYMEMZERO(void *s, size_t n);
  75:Generated_Source\PSoC4/cyfitter_cfg.c **** CY_CFG_UNUSED
  76:Generated_Source\PSoC4/cyfitter_cfg.c **** static void CYMEMZERO(void *s, size_t n)
  77:Generated_Source\PSoC4/cyfitter_cfg.c **** {
  78:Generated_Source\PSoC4/cyfitter_cfg.c **** 	(void)memset(s, 0, n);
  79:Generated_Source\PSoC4/cyfitter_cfg.c **** }
  80:Generated_Source\PSoC4/cyfitter_cfg.c **** CY_CFG_UNUSED
  81:Generated_Source\PSoC4/cyfitter_cfg.c **** static void CYCONFIGCPY(void *dest, const void *src, size_t n);
  82:Generated_Source\PSoC4/cyfitter_cfg.c **** CY_CFG_UNUSED
  83:Generated_Source\PSoC4/cyfitter_cfg.c **** static void CYCONFIGCPY(void *dest, const void *src, size_t n)
  84:Generated_Source\PSoC4/cyfitter_cfg.c **** {
  85:Generated_Source\PSoC4/cyfitter_cfg.c **** 	(void)memcpy(dest, src, n);
  86:Generated_Source\PSoC4/cyfitter_cfg.c **** }
  87:Generated_Source\PSoC4/cyfitter_cfg.c **** CY_CFG_UNUSED
  88:Generated_Source\PSoC4/cyfitter_cfg.c **** static void CYCONFIGCPYCODE(void *dest, const void *src, size_t n);
ARM GAS  C:\Users\bogda\AppData\Local\Temp\ccSIJY9Y.s 			page 3


  89:Generated_Source\PSoC4/cyfitter_cfg.c **** CY_CFG_UNUSED
  90:Generated_Source\PSoC4/cyfitter_cfg.c **** static void CYCONFIGCPYCODE(void *dest, const void *src, size_t n)
  91:Generated_Source\PSoC4/cyfitter_cfg.c **** {
  92:Generated_Source\PSoC4/cyfitter_cfg.c **** 	(void)memcpy(dest, src, n);
  93:Generated_Source\PSoC4/cyfitter_cfg.c **** }
  94:Generated_Source\PSoC4/cyfitter_cfg.c **** 
  95:Generated_Source\PSoC4/cyfitter_cfg.c **** 
  96:Generated_Source\PSoC4/cyfitter_cfg.c **** 
  97:Generated_Source\PSoC4/cyfitter_cfg.c **** 
  98:Generated_Source\PSoC4/cyfitter_cfg.c **** /* Clock startup error codes                                                   */
  99:Generated_Source\PSoC4/cyfitter_cfg.c **** #define CYCLOCKSTART_NO_ERROR    0u
 100:Generated_Source\PSoC4/cyfitter_cfg.c **** #define CYCLOCKSTART_XTAL_ERROR  1u
 101:Generated_Source\PSoC4/cyfitter_cfg.c **** #define CYCLOCKSTART_32KHZ_ERROR 2u
 102:Generated_Source\PSoC4/cyfitter_cfg.c **** #define CYCLOCKSTART_PLL_ERROR   3u
 103:Generated_Source\PSoC4/cyfitter_cfg.c **** #define CYCLOCKSTART_FLL_ERROR   4u
 104:Generated_Source\PSoC4/cyfitter_cfg.c **** #define CYCLOCKSTART_WCO_ERROR   5u
 105:Generated_Source\PSoC4/cyfitter_cfg.c **** 
 106:Generated_Source\PSoC4/cyfitter_cfg.c **** 
 107:Generated_Source\PSoC4/cyfitter_cfg.c **** #ifdef CY_NEED_CYCLOCKSTARTUPERROR
 108:Generated_Source\PSoC4/cyfitter_cfg.c **** /*******************************************************************************
 109:Generated_Source\PSoC4/cyfitter_cfg.c **** * Function Name: CyClockStartupError
 110:Generated_Source\PSoC4/cyfitter_cfg.c **** ********************************************************************************
 111:Generated_Source\PSoC4/cyfitter_cfg.c **** * Summary:
 112:Generated_Source\PSoC4/cyfitter_cfg.c **** *  If an error is encountered during clock configuration (crystal startup error,
 113:Generated_Source\PSoC4/cyfitter_cfg.c **** *  PLL lock error, etc.), the system will end up here.  Unless reimplemented by
 114:Generated_Source\PSoC4/cyfitter_cfg.c **** *  the customer, this function will stop in an infinite loop.
 115:Generated_Source\PSoC4/cyfitter_cfg.c **** *
 116:Generated_Source\PSoC4/cyfitter_cfg.c **** * Parameters:
 117:Generated_Source\PSoC4/cyfitter_cfg.c **** *   void
 118:Generated_Source\PSoC4/cyfitter_cfg.c **** *
 119:Generated_Source\PSoC4/cyfitter_cfg.c **** * Return:
 120:Generated_Source\PSoC4/cyfitter_cfg.c **** *   void
 121:Generated_Source\PSoC4/cyfitter_cfg.c **** *
 122:Generated_Source\PSoC4/cyfitter_cfg.c **** *******************************************************************************/
 123:Generated_Source\PSoC4/cyfitter_cfg.c **** CY_CFG_UNUSED
 124:Generated_Source\PSoC4/cyfitter_cfg.c **** static void CyClockStartupError(uint8 errorCode);
 125:Generated_Source\PSoC4/cyfitter_cfg.c **** CY_CFG_UNUSED
 126:Generated_Source\PSoC4/cyfitter_cfg.c **** static void CyClockStartupError(uint8 errorCode)
 127:Generated_Source\PSoC4/cyfitter_cfg.c **** {
 128:Generated_Source\PSoC4/cyfitter_cfg.c ****     /* To remove the compiler warning if errorCode not used.                */
 129:Generated_Source\PSoC4/cyfitter_cfg.c ****     errorCode = errorCode;
 130:Generated_Source\PSoC4/cyfitter_cfg.c **** 
 131:Generated_Source\PSoC4/cyfitter_cfg.c ****     /* If we have a clock startup error (bad MHz crystal, PLL lock, etc.),  */
 132:Generated_Source\PSoC4/cyfitter_cfg.c ****     /* we will end up here to allow the customer to implement something to  */
 133:Generated_Source\PSoC4/cyfitter_cfg.c ****     /* deal with the clock condition.                                       */
 134:Generated_Source\PSoC4/cyfitter_cfg.c **** 
 135:Generated_Source\PSoC4/cyfitter_cfg.c **** #ifdef CY_CFG_CLOCK_STARTUP_ERROR_CALLBACK
 136:Generated_Source\PSoC4/cyfitter_cfg.c ****     CY_CFG_Clock_Startup_ErrorCallback();
 137:Generated_Source\PSoC4/cyfitter_cfg.c **** #else
 138:Generated_Source\PSoC4/cyfitter_cfg.c ****     /*  If not using CY_CFG_CLOCK_STARTUP_ERROR_CALLBACK, place your clock startup code here. */
 139:Generated_Source\PSoC4/cyfitter_cfg.c ****     /* `#START CyClockStartupError` */
 140:Generated_Source\PSoC4/cyfitter_cfg.c **** 
 141:Generated_Source\PSoC4/cyfitter_cfg.c **** 
 142:Generated_Source\PSoC4/cyfitter_cfg.c **** 
 143:Generated_Source\PSoC4/cyfitter_cfg.c ****     /* `#END` */
 144:Generated_Source\PSoC4/cyfitter_cfg.c **** 
 145:Generated_Source\PSoC4/cyfitter_cfg.c ****     while(1) {}
ARM GAS  C:\Users\bogda\AppData\Local\Temp\ccSIJY9Y.s 			page 4


 146:Generated_Source\PSoC4/cyfitter_cfg.c **** #endif /* CY_CFG_CLOCK_STARTUP_ERROR_CALLBACK */
 147:Generated_Source\PSoC4/cyfitter_cfg.c **** }
 148:Generated_Source\PSoC4/cyfitter_cfg.c **** #endif
 149:Generated_Source\PSoC4/cyfitter_cfg.c **** 
 150:Generated_Source\PSoC4/cyfitter_cfg.c **** #define CY_CFG_BASE_ADDR_COUNT 9u
 151:Generated_Source\PSoC4/cyfitter_cfg.c **** CYPACKED typedef struct
 152:Generated_Source\PSoC4/cyfitter_cfg.c **** {
 153:Generated_Source\PSoC4/cyfitter_cfg.c **** 	uint8 offset;
 154:Generated_Source\PSoC4/cyfitter_cfg.c **** 	uint8 value;
 155:Generated_Source\PSoC4/cyfitter_cfg.c **** } CYPACKED_ATTR cy_cfg_addrvalue_t;
 156:Generated_Source\PSoC4/cyfitter_cfg.c **** 
 157:Generated_Source\PSoC4/cyfitter_cfg.c **** 
 158:Generated_Source\PSoC4/cyfitter_cfg.c **** 
 159:Generated_Source\PSoC4/cyfitter_cfg.c **** /*******************************************************************************
 160:Generated_Source\PSoC4/cyfitter_cfg.c **** * Function Name: cfg_write_bytes32
 161:Generated_Source\PSoC4/cyfitter_cfg.c **** ********************************************************************************
 162:Generated_Source\PSoC4/cyfitter_cfg.c **** * Summary:
 163:Generated_Source\PSoC4/cyfitter_cfg.c **** *  This function is used for setting up the chip configuration areas that
 164:Generated_Source\PSoC4/cyfitter_cfg.c **** *  contain relatively sparse data.
 165:Generated_Source\PSoC4/cyfitter_cfg.c **** *
 166:Generated_Source\PSoC4/cyfitter_cfg.c **** * Parameters:
 167:Generated_Source\PSoC4/cyfitter_cfg.c **** *   void
 168:Generated_Source\PSoC4/cyfitter_cfg.c **** *
 169:Generated_Source\PSoC4/cyfitter_cfg.c **** * Return:
 170:Generated_Source\PSoC4/cyfitter_cfg.c **** *   void
 171:Generated_Source\PSoC4/cyfitter_cfg.c **** *
 172:Generated_Source\PSoC4/cyfitter_cfg.c **** *******************************************************************************/
 173:Generated_Source\PSoC4/cyfitter_cfg.c **** static void cfg_write_bytes32(const uint32 addr_table[], const cy_cfg_addrvalue_t data_table[]);
 174:Generated_Source\PSoC4/cyfitter_cfg.c **** static void cfg_write_bytes32(const uint32 addr_table[], const cy_cfg_addrvalue_t data_table[])
 175:Generated_Source\PSoC4/cyfitter_cfg.c **** {
  27              		.loc 1 175 0
  28              		.cfi_startproc
  29              		@ args = 0, pretend = 0, frame = 0
  30              		@ frame_needed = 0, uses_anonymous_args = 0
  31              	.LVL0:
  32 0000 F0B5     		push	{r4, r5, r6, r7, lr}
  33              		.cfi_def_cfa_offset 20
  34              		.cfi_offset 4, -20
  35              		.cfi_offset 5, -16
  36              		.cfi_offset 6, -12
  37              		.cfi_offset 7, -8
  38              		.cfi_offset 14, -4
  39              	.LVL1:
 176:Generated_Source\PSoC4/cyfitter_cfg.c **** 	/* For 32-bit little-endian architectures */
 177:Generated_Source\PSoC4/cyfitter_cfg.c **** 	uint32 i, j = 0u;
  40              		.loc 1 177 0
  41 0002 0025     		movs	r5, #0
 178:Generated_Source\PSoC4/cyfitter_cfg.c **** 	for (i = 0u; i < CY_CFG_BASE_ADDR_COUNT; i++)
  42              		.loc 1 178 0
  43 0004 0027     		movs	r7, #0
  44 0006 11E0     		b	.L2
  45              	.LVL2:
  46              	.L5:
  47              	.LBB2:
 179:Generated_Source\PSoC4/cyfitter_cfg.c **** 	{
 180:Generated_Source\PSoC4/cyfitter_cfg.c **** 		uint32 baseAddr = addr_table[i];
  48              		.loc 1 180 0
ARM GAS  C:\Users\bogda\AppData\Local\Temp\ccSIJY9Y.s 			page 5


  49 0008 BB00     		lsls	r3, r7, #2
  50 000a C658     		ldr	r6, [r0, r3]
  51              	.LVL3:
 181:Generated_Source\PSoC4/cyfitter_cfg.c **** 		uint8 count = (uint8)baseAddr;
  52              		.loc 1 181 0
  53 000c F3B2     		uxtb	r3, r6
  54              	.LVL4:
 182:Generated_Source\PSoC4/cyfitter_cfg.c **** 		baseAddr &= 0xFFFFFF00u;
  55              		.loc 1 182 0
  56 000e FF22     		movs	r2, #255
  57 0010 9643     		bics	r6, r2
  58              	.LVL5:
 183:Generated_Source\PSoC4/cyfitter_cfg.c **** 		while (count != 0u)
  59              		.loc 1 183 0
  60 0012 08E0     		b	.L3
  61              	.L4:
 184:Generated_Source\PSoC4/cyfitter_cfg.c **** 		{
 185:Generated_Source\PSoC4/cyfitter_cfg.c **** 			CY_SET_REG8((void *)(baseAddr + data_table[j].offset), data_table[j].value);
  62              		.loc 1 185 0
  63 0014 6A00     		lsls	r2, r5, #1
  64 0016 8A18     		adds	r2, r1, r2
  65 0018 1478     		ldrb	r4, [r2]
  66 001a A419     		adds	r4, r4, r6
  67 001c 5278     		ldrb	r2, [r2, #1]
  68 001e 2270     		strb	r2, [r4]
 186:Generated_Source\PSoC4/cyfitter_cfg.c **** 			j++;
  69              		.loc 1 186 0
  70 0020 0135     		adds	r5, r5, #1
  71              	.LVL6:
 187:Generated_Source\PSoC4/cyfitter_cfg.c **** 			count--;
  72              		.loc 1 187 0
  73 0022 013B     		subs	r3, r3, #1
  74              	.LVL7:
  75 0024 DBB2     		uxtb	r3, r3
  76              	.LVL8:
  77              	.L3:
 183:Generated_Source\PSoC4/cyfitter_cfg.c **** 		{
  78              		.loc 1 183 0
  79 0026 002B     		cmp	r3, #0
  80 0028 F4D1     		bne	.L4
  81              	.LBE2:
 178:Generated_Source\PSoC4/cyfitter_cfg.c **** 	{
  82              		.loc 1 178 0 discriminator 2
  83 002a 0137     		adds	r7, r7, #1
  84              	.LVL9:
  85              	.L2:
 178:Generated_Source\PSoC4/cyfitter_cfg.c **** 	{
  86              		.loc 1 178 0 is_stmt 0 discriminator 1
  87 002c 082F     		cmp	r7, #8
  88 002e EBD9     		bls	.L5
 188:Generated_Source\PSoC4/cyfitter_cfg.c **** 		}
 189:Generated_Source\PSoC4/cyfitter_cfg.c **** 	}
 190:Generated_Source\PSoC4/cyfitter_cfg.c **** }
  89              		.loc 1 190 0 is_stmt 1
  90              		@ sp needed
  91              	.LVL10:
  92              	.LVL11:
ARM GAS  C:\Users\bogda\AppData\Local\Temp\ccSIJY9Y.s 			page 6


  93 0030 F0BD     		pop	{r4, r5, r6, r7, pc}
  94              		.cfi_endproc
  95              	.LFE5:
  96              		.size	cfg_write_bytes32, .-cfg_write_bytes32
  97 0032 C046     		.section	.text.AnalogSetDefault,"ax",%progbits
  98              		.align	2
  99              		.code	16
 100              		.thumb_func
 101              		.type	AnalogSetDefault, %function
 102              	AnalogSetDefault:
 103              	.LFB7:
 191:Generated_Source\PSoC4/cyfitter_cfg.c **** 
 192:Generated_Source\PSoC4/cyfitter_cfg.c **** 
 193:Generated_Source\PSoC4/cyfitter_cfg.c **** /*******************************************************************************
 194:Generated_Source\PSoC4/cyfitter_cfg.c **** * Function Name: ClockSetup
 195:Generated_Source\PSoC4/cyfitter_cfg.c **** ********************************************************************************
 196:Generated_Source\PSoC4/cyfitter_cfg.c **** *
 197:Generated_Source\PSoC4/cyfitter_cfg.c **** * Summary:
 198:Generated_Source\PSoC4/cyfitter_cfg.c **** *   Performs the initialization of all of the clocks in the device based on the
 199:Generated_Source\PSoC4/cyfitter_cfg.c **** *   settings in the Clock tab of the DWR.  This includes enabling the requested
 200:Generated_Source\PSoC4/cyfitter_cfg.c **** *   clocks and setting the necessary dividers to produce the desired frequency. 
 201:Generated_Source\PSoC4/cyfitter_cfg.c **** *
 202:Generated_Source\PSoC4/cyfitter_cfg.c **** * Parameters:
 203:Generated_Source\PSoC4/cyfitter_cfg.c **** *   void
 204:Generated_Source\PSoC4/cyfitter_cfg.c **** *
 205:Generated_Source\PSoC4/cyfitter_cfg.c **** * Return:
 206:Generated_Source\PSoC4/cyfitter_cfg.c **** *   void
 207:Generated_Source\PSoC4/cyfitter_cfg.c **** *
 208:Generated_Source\PSoC4/cyfitter_cfg.c **** *******************************************************************************/
 209:Generated_Source\PSoC4/cyfitter_cfg.c **** static void ClockSetup(void);
 210:Generated_Source\PSoC4/cyfitter_cfg.c **** CY_CFG_SECTION
 211:Generated_Source\PSoC4/cyfitter_cfg.c **** static void ClockSetup(void)
 212:Generated_Source\PSoC4/cyfitter_cfg.c **** {
 213:Generated_Source\PSoC4/cyfitter_cfg.c **** 
 214:Generated_Source\PSoC4/cyfitter_cfg.c **** 	/* Set Flash Cycles based on max possible frequency in case a glitch occurs during ClockSetup(). *
 215:Generated_Source\PSoC4/cyfitter_cfg.c **** 	CY_SET_REG32((void CYXDATA *)(CYREG_CPUSS_FLASH_CTL), (0x0012u));
 216:Generated_Source\PSoC4/cyfitter_cfg.c **** 
 217:Generated_Source\PSoC4/cyfitter_cfg.c **** 	/* Start the WCO */
 218:Generated_Source\PSoC4/cyfitter_cfg.c **** 	CySysClkWcoStart();
 219:Generated_Source\PSoC4/cyfitter_cfg.c **** 	CyDelayCycles(12000000u); /* WCO may take up to 500ms to start */
 220:Generated_Source\PSoC4/cyfitter_cfg.c **** 	(void)CySysClkWcoSetPowerMode(CY_SYS_CLK_WCO_LPM);    /* Switch to the low power mode */
 221:Generated_Source\PSoC4/cyfitter_cfg.c **** 
 222:Generated_Source\PSoC4/cyfitter_cfg.c **** 	/* Setup and trim IMO based on desired frequency. */
 223:Generated_Source\PSoC4/cyfitter_cfg.c **** 	CySysClkWriteImoFreq(48u);
 224:Generated_Source\PSoC4/cyfitter_cfg.c **** 	/* CYDEV_CLK_ILO_CONFIG Starting address: CYDEV_CLK_ILO_CONFIG */
 225:Generated_Source\PSoC4/cyfitter_cfg.c **** 	CY_SET_REG32((void *)(CYREG_CLK_ILO_CONFIG), 0x80000006u);
 226:Generated_Source\PSoC4/cyfitter_cfg.c **** 
 227:Generated_Source\PSoC4/cyfitter_cfg.c **** 	/* CYDEV_WDT_CONFIG Starting address: CYDEV_WDT_CONFIG */
 228:Generated_Source\PSoC4/cyfitter_cfg.c **** 	CY_SET_REG32((void *)(CYREG_WDT_CONFIG), 0x40000000u);
 229:Generated_Source\PSoC4/cyfitter_cfg.c **** 
 230:Generated_Source\PSoC4/cyfitter_cfg.c **** 
 231:Generated_Source\PSoC4/cyfitter_cfg.c **** 	/* Enable fast start mode for XO */
 232:Generated_Source\PSoC4/cyfitter_cfg.c **** 	CY_SET_REG32((void*)CYREG_BLE_BLERD_BB_XO, CY_GET_REG32((void*)CYREG_BLE_BLERD_BB_XO) | (uint32)0x
 233:Generated_Source\PSoC4/cyfitter_cfg.c **** 	CY_SET_REG32((void *)(CYREG_BLE_BLERD_BB_XO_CAPTRIM), 0x00003E2Du);
 234:Generated_Source\PSoC4/cyfitter_cfg.c **** 	/*Set XTAL(ECO) divider*/
 235:Generated_Source\PSoC4/cyfitter_cfg.c **** 	CY_SET_REG32((void *)(CYREG_BLE_BLESS_XTAL_CLK_DIV_CONFIG), 0x00000000u);
 236:Generated_Source\PSoC4/cyfitter_cfg.c **** 	/* Disable Crystal Stable Interrupt before enabling ECO */
ARM GAS  C:\Users\bogda\AppData\Local\Temp\ccSIJY9Y.s 			page 7


 237:Generated_Source\PSoC4/cyfitter_cfg.c **** 	CY_SET_REG32((void*)CYREG_BLE_BLESS_LL_DSM_CTRL, CY_GET_REG32((void*)CYREG_BLE_BLESS_LL_DSM_CTRL) 
 238:Generated_Source\PSoC4/cyfitter_cfg.c **** 	/* Start the ECO and do not check status since it is not needed for HFCLK */
 239:Generated_Source\PSoC4/cyfitter_cfg.c **** 	(void)CySysClkEcoStart(2000u);
 240:Generated_Source\PSoC4/cyfitter_cfg.c **** 	CyDelayUs(1500u); /* Wait to stabilize */
 241:Generated_Source\PSoC4/cyfitter_cfg.c **** 
 242:Generated_Source\PSoC4/cyfitter_cfg.c **** 	/* Setup phase aligned clocks */
 243:Generated_Source\PSoC4/cyfitter_cfg.c **** 	CY_SET_REG32((void *)CYREG_PERI_DIV_16_CTL0, 0x00000100u);
 244:Generated_Source\PSoC4/cyfitter_cfg.c **** 	CY_SET_REG32((void *)CYREG_PERI_DIV_CMD, 0x8000FF40u);
 245:Generated_Source\PSoC4/cyfitter_cfg.c **** 	CY_SET_REG32((void *)CYREG_PERI_DIV_16_CTL1, 0x00002200u);
 246:Generated_Source\PSoC4/cyfitter_cfg.c **** 	CY_SET_REG32((void *)CYREG_PERI_DIV_CMD, 0x8000FF41u);
 247:Generated_Source\PSoC4/cyfitter_cfg.c **** 
 248:Generated_Source\PSoC4/cyfitter_cfg.c **** 	/* CYDEV_CLK_IMO_CONFIG Starting address: CYDEV_CLK_IMO_CONFIG */
 249:Generated_Source\PSoC4/cyfitter_cfg.c **** 	CY_SET_REG32((void *)(CYREG_CLK_IMO_CONFIG), 0x80000000u);
 250:Generated_Source\PSoC4/cyfitter_cfg.c **** 
 251:Generated_Source\PSoC4/cyfitter_cfg.c **** 	/* CYDEV_CLK_SELECT Starting address: CYDEV_CLK_SELECT */
 252:Generated_Source\PSoC4/cyfitter_cfg.c **** 	CY_SET_REG32((void *)(CYREG_CLK_SELECT), 0x00040000u);
 253:Generated_Source\PSoC4/cyfitter_cfg.c **** 
 254:Generated_Source\PSoC4/cyfitter_cfg.c **** 	/* CYDEV_PERI_PCLK_CTL1 Starting address: CYDEV_PERI_PCLK_CTL1 */
 255:Generated_Source\PSoC4/cyfitter_cfg.c **** 	CY_SET_REG32((void *)(CYREG_PERI_PCLK_CTL1), 0x00000041u);
 256:Generated_Source\PSoC4/cyfitter_cfg.c **** 
 257:Generated_Source\PSoC4/cyfitter_cfg.c **** 	(void)CyIntSetVector(8u, &CySysWdtIsr);
 258:Generated_Source\PSoC4/cyfitter_cfg.c **** 	CyIntEnable(8u);
 259:Generated_Source\PSoC4/cyfitter_cfg.c **** 	CY_SET_REG32((void *)(CYREG_WDT_CONFIG), 0x40000000u);
 260:Generated_Source\PSoC4/cyfitter_cfg.c **** }
 261:Generated_Source\PSoC4/cyfitter_cfg.c **** 
 262:Generated_Source\PSoC4/cyfitter_cfg.c **** 
 263:Generated_Source\PSoC4/cyfitter_cfg.c **** /* Analog API Functions */
 264:Generated_Source\PSoC4/cyfitter_cfg.c **** 
 265:Generated_Source\PSoC4/cyfitter_cfg.c **** 
 266:Generated_Source\PSoC4/cyfitter_cfg.c **** /*******************************************************************************
 267:Generated_Source\PSoC4/cyfitter_cfg.c **** * Function Name: AnalogSetDefault
 268:Generated_Source\PSoC4/cyfitter_cfg.c **** ********************************************************************************
 269:Generated_Source\PSoC4/cyfitter_cfg.c **** *
 270:Generated_Source\PSoC4/cyfitter_cfg.c **** * Summary:
 271:Generated_Source\PSoC4/cyfitter_cfg.c **** *  Sets up the analog portions of the chip to default values based on chip
 272:Generated_Source\PSoC4/cyfitter_cfg.c **** *  configuration options from the project.
 273:Generated_Source\PSoC4/cyfitter_cfg.c **** *
 274:Generated_Source\PSoC4/cyfitter_cfg.c **** * Parameters:
 275:Generated_Source\PSoC4/cyfitter_cfg.c **** *  void
 276:Generated_Source\PSoC4/cyfitter_cfg.c **** *
 277:Generated_Source\PSoC4/cyfitter_cfg.c **** * Return:
 278:Generated_Source\PSoC4/cyfitter_cfg.c **** *  void
 279:Generated_Source\PSoC4/cyfitter_cfg.c **** *
 280:Generated_Source\PSoC4/cyfitter_cfg.c **** *******************************************************************************/
 281:Generated_Source\PSoC4/cyfitter_cfg.c **** static void AnalogSetDefault(void);
 282:Generated_Source\PSoC4/cyfitter_cfg.c **** static void AnalogSetDefault(void)
 283:Generated_Source\PSoC4/cyfitter_cfg.c **** {
 104              		.loc 1 283 0
 105              		.cfi_startproc
 106              		@ args = 0, pretend = 0, frame = 0
 107              		@ frame_needed = 0, uses_anonymous_args = 0
 108              		@ link register save eliminated.
 284:Generated_Source\PSoC4/cyfitter_cfg.c **** 	CY_SET_XTND_REG32((void CYFAR *)CYREG_CTBM0_DFT_CTRL, 0x00000003u);
 109              		.loc 1 284 0
 110 0000 0323     		movs	r3, #3
 111 0002 044A     		ldr	r2, .L7
 112 0004 1360     		str	r3, [r2]
ARM GAS  C:\Users\bogda\AppData\Local\Temp\ccSIJY9Y.s 			page 8


 285:Generated_Source\PSoC4/cyfitter_cfg.c **** 	CY_SET_XTND_REG32((void CYFAR *)CYREG_CTBM1_DFT_CTRL, 0x00000003u);
 113              		.loc 1 285 0
 114 0006 044A     		ldr	r2, .L7+4
 115 0008 1360     		str	r3, [r2]
 286:Generated_Source\PSoC4/cyfitter_cfg.c **** 	CY_SET_XTND_REG32((void CYFAR *)CYREG_PASS_DSAB_DSAB_CTRL, 0x00000000u);
 116              		.loc 1 286 0
 117 000a 0022     		movs	r2, #0
 118 000c 034B     		ldr	r3, .L7+8
 119 000e 1A60     		str	r2, [r3]
 287:Generated_Source\PSoC4/cyfitter_cfg.c **** }
 120              		.loc 1 287 0
 121              		@ sp needed
 122 0010 7047     		bx	lr
 123              	.L8:
 124 0012 C046     		.align	2
 125              	.L7:
 126 0014 30003040 		.word	1076887600
 127 0018 30003140 		.word	1076953136
 128 001c 000E3F40 		.word	1077874176
 129              		.cfi_endproc
 130              	.LFE7:
 131              		.size	AnalogSetDefault, .-AnalogSetDefault
 132              		.section	.text.CYMEMZERO,"ax",%progbits
 133              		.align	2
 134              		.code	16
 135              		.thumb_func
 136              		.type	CYMEMZERO, %function
 137              	CYMEMZERO:
 138              	.LFB2:
  77:Generated_Source\PSoC4/cyfitter_cfg.c **** 	(void)memset(s, 0, n);
 139              		.loc 1 77 0
 140              		.cfi_startproc
 141              		@ args = 0, pretend = 0, frame = 0
 142              		@ frame_needed = 0, uses_anonymous_args = 0
 143              	.LVL12:
 144 0000 10B5     		push	{r4, lr}
 145              		.cfi_def_cfa_offset 8
 146              		.cfi_offset 4, -8
 147              		.cfi_offset 14, -4
 148 0002 0A00     		movs	r2, r1
  78:Generated_Source\PSoC4/cyfitter_cfg.c **** }
 149              		.loc 1 78 0
 150 0004 0021     		movs	r1, #0
 151              	.LVL13:
 152 0006 FFF7FEFF 		bl	memset
 153              	.LVL14:
  79:Generated_Source\PSoC4/cyfitter_cfg.c **** CY_CFG_UNUSED
 154              		.loc 1 79 0
 155              		@ sp needed
 156 000a 10BD     		pop	{r4, pc}
 157              		.cfi_endproc
 158              	.LFE2:
 159              		.size	CYMEMZERO, .-CYMEMZERO
 160              		.section	.psocinit,"ax",%progbits
 161              		.align	2
 162              		.code	16
 163              		.thumb_func
ARM GAS  C:\Users\bogda\AppData\Local\Temp\ccSIJY9Y.s 			page 9


 164              		.type	ClockSetup, %function
 165              	ClockSetup:
 166              	.LFB6:
 212:Generated_Source\PSoC4/cyfitter_cfg.c **** 
 167              		.loc 1 212 0
 168              		.cfi_startproc
 169              		@ args = 0, pretend = 0, frame = 0
 170              		@ frame_needed = 0, uses_anonymous_args = 0
 171 0000 70B5     		push	{r4, r5, r6, lr}
 172              		.cfi_def_cfa_offset 16
 173              		.cfi_offset 4, -16
 174              		.cfi_offset 5, -12
 175              		.cfi_offset 6, -8
 176              		.cfi_offset 14, -4
 215:Generated_Source\PSoC4/cyfitter_cfg.c **** 
 177              		.loc 1 215 0
 178 0002 1222     		movs	r2, #18
 179 0004 254B     		ldr	r3, .L11
 180 0006 1A60     		str	r2, [r3]
 218:Generated_Source\PSoC4/cyfitter_cfg.c **** 	CyDelayCycles(12000000u); /* WCO may take up to 500ms to start */
 181              		.loc 1 218 0
 182 0008 FFF7FEFF 		bl	CySysClkWcoStart
 183              	.LVL15:
 219:Generated_Source\PSoC4/cyfitter_cfg.c **** 	(void)CySysClkWcoSetPowerMode(CY_SYS_CLK_WCO_LPM);    /* Switch to the low power mode */
 184              		.loc 1 219 0
 185 000c 2448     		ldr	r0, .L11+4
 186 000e FFF7FEFF 		bl	CyDelayCycles
 187              	.LVL16:
 220:Generated_Source\PSoC4/cyfitter_cfg.c **** 
 188              		.loc 1 220 0
 189 0012 0120     		movs	r0, #1
 190 0014 FFF7FEFF 		bl	CySysClkWcoSetPowerMode
 191              	.LVL17:
 223:Generated_Source\PSoC4/cyfitter_cfg.c **** 	/* CYDEV_CLK_ILO_CONFIG Starting address: CYDEV_CLK_ILO_CONFIG */
 192              		.loc 1 223 0
 193 0018 3020     		movs	r0, #48
 194 001a FFF7FEFF 		bl	CySysClkWriteImoFreq
 195              	.LVL18:
 225:Generated_Source\PSoC4/cyfitter_cfg.c **** 
 196              		.loc 1 225 0
 197 001e 214A     		ldr	r2, .L11+8
 198 0020 214B     		ldr	r3, .L11+12
 199 0022 1A60     		str	r2, [r3]
 228:Generated_Source\PSoC4/cyfitter_cfg.c **** 
 200              		.loc 1 228 0
 201 0024 214C     		ldr	r4, .L11+16
 202 0026 8025     		movs	r5, #128
 203 0028 ED05     		lsls	r5, r5, #23
 204 002a 2560     		str	r5, [r4]
 232:Generated_Source\PSoC4/cyfitter_cfg.c **** 	CY_SET_REG32((void *)(CYREG_BLE_BLERD_BB_XO_CAPTRIM), 0x00003E2Du);
 205              		.loc 1 232 0
 206 002c 204A     		ldr	r2, .L11+20
 207 002e 1168     		ldr	r1, [r2]
 208 0030 0223     		movs	r3, #2
 209 0032 0B43     		orrs	r3, r1
 210 0034 1360     		str	r3, [r2]
 233:Generated_Source\PSoC4/cyfitter_cfg.c **** 	/*Set XTAL(ECO) divider*/
ARM GAS  C:\Users\bogda\AppData\Local\Temp\ccSIJY9Y.s 			page 10


 211              		.loc 1 233 0
 212 0036 1F4A     		ldr	r2, .L11+24
 213 0038 1F4B     		ldr	r3, .L11+28
 214 003a 1A60     		str	r2, [r3]
 235:Generated_Source\PSoC4/cyfitter_cfg.c **** 	/* Disable Crystal Stable Interrupt before enabling ECO */
 215              		.loc 1 235 0
 216 003c 0022     		movs	r2, #0
 217 003e 1F4B     		ldr	r3, .L11+32
 218 0040 1A60     		str	r2, [r3]
 237:Generated_Source\PSoC4/cyfitter_cfg.c **** 	/* Start the ECO and do not check status since it is not needed for HFCLK */
 219              		.loc 1 237 0
 220 0042 1F4A     		ldr	r2, .L11+36
 221 0044 1368     		ldr	r3, [r2]
 222 0046 0821     		movs	r1, #8
 223 0048 8B43     		bics	r3, r1
 224 004a 1360     		str	r3, [r2]
 239:Generated_Source\PSoC4/cyfitter_cfg.c **** 	CyDelayUs(1500u); /* Wait to stabilize */
 225              		.loc 1 239 0
 226 004c FA20     		movs	r0, #250
 227 004e C000     		lsls	r0, r0, #3
 228 0050 FFF7FEFF 		bl	CySysClkEcoStart
 229              	.LVL19:
 240:Generated_Source\PSoC4/cyfitter_cfg.c **** 
 230              		.loc 1 240 0
 231 0054 1B48     		ldr	r0, .L11+40
 232 0056 FFF7FEFF 		bl	CyDelayUs
 233              	.LVL20:
 243:Generated_Source\PSoC4/cyfitter_cfg.c **** 	CY_SET_REG32((void *)CYREG_PERI_DIV_CMD, 0x8000FF40u);
 234              		.loc 1 243 0
 235 005a 8022     		movs	r2, #128
 236 005c 5200     		lsls	r2, r2, #1
 237 005e 1A4B     		ldr	r3, .L11+44
 238 0060 1A60     		str	r2, [r3]
 244:Generated_Source\PSoC4/cyfitter_cfg.c **** 	CY_SET_REG32((void *)CYREG_PERI_DIV_16_CTL1, 0x00002200u);
 239              		.loc 1 244 0
 240 0062 1A4B     		ldr	r3, .L11+48
 241 0064 1A4A     		ldr	r2, .L11+52
 242 0066 1A60     		str	r2, [r3]
 245:Generated_Source\PSoC4/cyfitter_cfg.c **** 	CY_SET_REG32((void *)CYREG_PERI_DIV_CMD, 0x8000FF41u);
 243              		.loc 1 245 0
 244 0068 8821     		movs	r1, #136
 245 006a 8901     		lsls	r1, r1, #6
 246 006c 194A     		ldr	r2, .L11+56
 247 006e 1160     		str	r1, [r2]
 246:Generated_Source\PSoC4/cyfitter_cfg.c **** 
 248              		.loc 1 246 0
 249 0070 194A     		ldr	r2, .L11+60
 250 0072 1A60     		str	r2, [r3]
 249:Generated_Source\PSoC4/cyfitter_cfg.c **** 
 251              		.loc 1 249 0
 252 0074 8022     		movs	r2, #128
 253 0076 1206     		lsls	r2, r2, #24
 254 0078 184B     		ldr	r3, .L11+64
 255 007a 1A60     		str	r2, [r3]
 252:Generated_Source\PSoC4/cyfitter_cfg.c **** 
 256              		.loc 1 252 0
 257 007c 8022     		movs	r2, #128
ARM GAS  C:\Users\bogda\AppData\Local\Temp\ccSIJY9Y.s 			page 11


 258 007e D202     		lsls	r2, r2, #11
 259 0080 174B     		ldr	r3, .L11+68
 260 0082 1A60     		str	r2, [r3]
 255:Generated_Source\PSoC4/cyfitter_cfg.c **** 
 261              		.loc 1 255 0
 262 0084 4122     		movs	r2, #65
 263 0086 174B     		ldr	r3, .L11+72
 264 0088 1A60     		str	r2, [r3]
 257:Generated_Source\PSoC4/cyfitter_cfg.c **** 	CyIntEnable(8u);
 265              		.loc 1 257 0
 266 008a 1749     		ldr	r1, .L11+76
 267 008c 0820     		movs	r0, #8
 268 008e FFF7FEFF 		bl	CyIntSetVector
 269              	.LVL21:
 258:Generated_Source\PSoC4/cyfitter_cfg.c **** 	CY_SET_REG32((void *)(CYREG_WDT_CONFIG), 0x40000000u);
 270              		.loc 1 258 0
 271 0092 0820     		movs	r0, #8
 272 0094 FFF7FEFF 		bl	CyIntEnable
 273              	.LVL22:
 259:Generated_Source\PSoC4/cyfitter_cfg.c **** }
 274              		.loc 1 259 0
 275 0098 2560     		str	r5, [r4]
 260:Generated_Source\PSoC4/cyfitter_cfg.c **** 
 276              		.loc 1 260 0
 277              		@ sp needed
 278 009a 70BD     		pop	{r4, r5, r6, pc}
 279              	.L12:
 280              		.align	2
 281              	.L11:
 282 009c 30001040 		.word	1074790448
 283 00a0 001BB700 		.word	12000000
 284 00a4 06000080 		.word	-2147483642
 285 00a8 04010B40 		.word	1074462980
 286 00ac 0C020B40 		.word	1074463244
 287 00b0 78002E40 		.word	1076756600
 288 00b4 2D3E0000 		.word	15917
 289 00b8 7C002E40 		.word	1076756604
 290 00bc 64F02E40 		.word	1076818020
 291 00c0 6CF02E40 		.word	1076818028
 292 00c4 DC050000 		.word	1500
 293 00c8 00030140 		.word	1073808128
 294 00cc 00000140 		.word	1073807360
 295 00d0 40FF0080 		.word	-2147418304
 296 00d4 04030140 		.word	1073808132
 297 00d8 41FF0080 		.word	-2147418303
 298 00dc 08010B40 		.word	1074462984
 299 00e0 00010B40 		.word	1074462976
 300 00e4 04010140 		.word	1073807620
 301 00e8 00000000 		.word	CySysWdtIsr
 302              		.cfi_endproc
 303              	.LFE6:
 304              		.size	ClockSetup, .-ClockSetup
 305              		.align	2
 306              		.global	cyfitter_cfg
 307              		.code	16
 308              		.thumb_func
 309              		.type	cyfitter_cfg, %function
ARM GAS  C:\Users\bogda\AppData\Local\Temp\ccSIJY9Y.s 			page 12


 310              	cyfitter_cfg:
 311              	.LFB8:
 288:Generated_Source\PSoC4/cyfitter_cfg.c **** 
 289:Generated_Source\PSoC4/cyfitter_cfg.c **** 
 290:Generated_Source\PSoC4/cyfitter_cfg.c **** 
 291:Generated_Source\PSoC4/cyfitter_cfg.c **** 
 292:Generated_Source\PSoC4/cyfitter_cfg.c **** /*******************************************************************************
 293:Generated_Source\PSoC4/cyfitter_cfg.c **** * Function Name: cyfitter_cfg
 294:Generated_Source\PSoC4/cyfitter_cfg.c **** ********************************************************************************
 295:Generated_Source\PSoC4/cyfitter_cfg.c **** * Summary:
 296:Generated_Source\PSoC4/cyfitter_cfg.c **** *  This function is called by the start-up code for the selected device. It
 297:Generated_Source\PSoC4/cyfitter_cfg.c **** *  performs all of the necessary device configuration based on the design
 298:Generated_Source\PSoC4/cyfitter_cfg.c **** *  settings.  This includes settings from the Design Wide Resources (DWR) such
 299:Generated_Source\PSoC4/cyfitter_cfg.c **** *  as Clocks and Pins as well as any component configuration that is necessary.
 300:Generated_Source\PSoC4/cyfitter_cfg.c **** *
 301:Generated_Source\PSoC4/cyfitter_cfg.c **** * Parameters:
 302:Generated_Source\PSoC4/cyfitter_cfg.c **** *   void
 303:Generated_Source\PSoC4/cyfitter_cfg.c **** *
 304:Generated_Source\PSoC4/cyfitter_cfg.c **** * Return:
 305:Generated_Source\PSoC4/cyfitter_cfg.c **** *   void
 306:Generated_Source\PSoC4/cyfitter_cfg.c **** *
 307:Generated_Source\PSoC4/cyfitter_cfg.c **** *******************************************************************************/
 308:Generated_Source\PSoC4/cyfitter_cfg.c **** CY_CFG_SECTION
 309:Generated_Source\PSoC4/cyfitter_cfg.c **** void cyfitter_cfg(void)
 310:Generated_Source\PSoC4/cyfitter_cfg.c **** {
 312              		.loc 1 310 0
 313              		.cfi_startproc
 314              		@ args = 0, pretend = 0, frame = 0
 315              		@ frame_needed = 0, uses_anonymous_args = 0
 316 00ec 10B5     		push	{r4, lr}
 317              		.cfi_def_cfa_offset 8
 318              		.cfi_offset 4, -8
 319              		.cfi_offset 14, -4
 311:Generated_Source\PSoC4/cyfitter_cfg.c **** 	/* Disable interrupts by default. Let user enable if/when they want. */
 312:Generated_Source\PSoC4/cyfitter_cfg.c **** 	CyGlobalIntDisable;
 320              		.loc 1 312 0
 321              		.syntax divided
 322              	@ 312 "Generated_Source\PSoC4\cyfitter_cfg.c" 1
 323 00ee 72B6     		CPSID   i
 324              	@ 0 "" 2
 313:Generated_Source\PSoC4/cyfitter_cfg.c **** 
 314:Generated_Source\PSoC4/cyfitter_cfg.c **** 	CY_SET_REG32((void *)(CYREG_BLE_BLESS_LL_DSM_CTRL), 0x00000000u);
 325              		.loc 1 314 0
 326              		.thumb
 327              		.syntax unified
 328 00f0 0022     		movs	r2, #0
 329 00f2 324B     		ldr	r3, .L16
 330 00f4 1A60     		str	r2, [r3]
 331              	.LVL23:
 332              	.LBB3:
 315:Generated_Source\PSoC4/cyfitter_cfg.c **** 
 316:Generated_Source\PSoC4/cyfitter_cfg.c **** 	{
 317:Generated_Source\PSoC4/cyfitter_cfg.c **** 		static const uint32 CYCODE cy_cfg_addr_table[] = {
 318:Generated_Source\PSoC4/cyfitter_cfg.c **** 			0x400F3027u, /* Base address: 0x400F3000 Count: 39 */
 319:Generated_Source\PSoC4/cyfitter_cfg.c **** 			0x400F3129u, /* Base address: 0x400F3100 Count: 41 */
 320:Generated_Source\PSoC4/cyfitter_cfg.c **** 			0x400F3222u, /* Base address: 0x400F3200 Count: 34 */
 321:Generated_Source\PSoC4/cyfitter_cfg.c **** 			0x400F3332u, /* Base address: 0x400F3300 Count: 50 */
ARM GAS  C:\Users\bogda\AppData\Local\Temp\ccSIJY9Y.s 			page 13


 322:Generated_Source\PSoC4/cyfitter_cfg.c **** 			0x400F400Fu, /* Base address: 0x400F4000 Count: 15 */
 323:Generated_Source\PSoC4/cyfitter_cfg.c **** 			0x400F4116u, /* Base address: 0x400F4100 Count: 22 */
 324:Generated_Source\PSoC4/cyfitter_cfg.c **** 			0x400F420Cu, /* Base address: 0x400F4200 Count: 12 */
 325:Generated_Source\PSoC4/cyfitter_cfg.c **** 			0x400F4304u, /* Base address: 0x400F4300 Count: 4 */
 326:Generated_Source\PSoC4/cyfitter_cfg.c **** 			0x400F6002u, /* Base address: 0x400F6000 Count: 2 */
 327:Generated_Source\PSoC4/cyfitter_cfg.c **** 		};
 328:Generated_Source\PSoC4/cyfitter_cfg.c **** 
 329:Generated_Source\PSoC4/cyfitter_cfg.c **** 		static const cy_cfg_addrvalue_t CYCODE cy_cfg_data_table[] = {
 330:Generated_Source\PSoC4/cyfitter_cfg.c **** 			{0x80u, 0x20u},
 331:Generated_Source\PSoC4/cyfitter_cfg.c **** 			{0x82u, 0x10u},
 332:Generated_Source\PSoC4/cyfitter_cfg.c **** 			{0x83u, 0x02u},
 333:Generated_Source\PSoC4/cyfitter_cfg.c **** 			{0x84u, 0x08u},
 334:Generated_Source\PSoC4/cyfitter_cfg.c **** 			{0x85u, 0x08u},
 335:Generated_Source\PSoC4/cyfitter_cfg.c **** 			{0x88u, 0x04u},
 336:Generated_Source\PSoC4/cyfitter_cfg.c **** 			{0x89u, 0x20u},
 337:Generated_Source\PSoC4/cyfitter_cfg.c **** 			{0x8Du, 0x10u},
 338:Generated_Source\PSoC4/cyfitter_cfg.c **** 			{0x8Eu, 0x04u},
 339:Generated_Source\PSoC4/cyfitter_cfg.c **** 			{0x92u, 0x08u},
 340:Generated_Source\PSoC4/cyfitter_cfg.c **** 			{0x93u, 0x80u},
 341:Generated_Source\PSoC4/cyfitter_cfg.c **** 			{0x95u, 0x01u},
 342:Generated_Source\PSoC4/cyfitter_cfg.c **** 			{0x96u, 0x01u},
 343:Generated_Source\PSoC4/cyfitter_cfg.c **** 			{0x98u, 0x01u},
 344:Generated_Source\PSoC4/cyfitter_cfg.c **** 			{0x99u, 0x02u},
 345:Generated_Source\PSoC4/cyfitter_cfg.c **** 			{0x9Cu, 0x02u},
 346:Generated_Source\PSoC4/cyfitter_cfg.c **** 			{0x9Du, 0x04u},
 347:Generated_Source\PSoC4/cyfitter_cfg.c **** 			{0xA0u, 0x10u},
 348:Generated_Source\PSoC4/cyfitter_cfg.c **** 			{0xA2u, 0x20u},
 349:Generated_Source\PSoC4/cyfitter_cfg.c **** 			{0xA3u, 0x40u},
 350:Generated_Source\PSoC4/cyfitter_cfg.c **** 			{0xA4u, 0x40u},
 351:Generated_Source\PSoC4/cyfitter_cfg.c **** 			{0xA6u, 0x80u},
 352:Generated_Source\PSoC4/cyfitter_cfg.c **** 			{0xA7u, 0x04u},
 353:Generated_Source\PSoC4/cyfitter_cfg.c **** 			{0xAAu, 0x02u},
 354:Generated_Source\PSoC4/cyfitter_cfg.c **** 			{0xABu, 0x08u},
 355:Generated_Source\PSoC4/cyfitter_cfg.c **** 			{0xACu, 0x80u},
 356:Generated_Source\PSoC4/cyfitter_cfg.c **** 			{0xAEu, 0x40u},
 357:Generated_Source\PSoC4/cyfitter_cfg.c **** 			{0xAFu, 0x01u},
 358:Generated_Source\PSoC4/cyfitter_cfg.c **** 			{0xB1u, 0x80u},
 359:Generated_Source\PSoC4/cyfitter_cfg.c **** 			{0xB6u, 0xFFu},
 360:Generated_Source\PSoC4/cyfitter_cfg.c **** 			{0xB7u, 0x7Fu},
 361:Generated_Source\PSoC4/cyfitter_cfg.c **** 			{0xB9u, 0x80u},
 362:Generated_Source\PSoC4/cyfitter_cfg.c **** 			{0xBEu, 0x40u},
 363:Generated_Source\PSoC4/cyfitter_cfg.c **** 			{0xBFu, 0x40u},
 364:Generated_Source\PSoC4/cyfitter_cfg.c **** 			{0xD8u, 0x04u},
 365:Generated_Source\PSoC4/cyfitter_cfg.c **** 			{0xD9u, 0x08u},
 366:Generated_Source\PSoC4/cyfitter_cfg.c **** 			{0xDBu, 0x04u},
 367:Generated_Source\PSoC4/cyfitter_cfg.c **** 			{0xDCu, 0x90u},
 368:Generated_Source\PSoC4/cyfitter_cfg.c **** 			{0xDFu, 0x01u},
 369:Generated_Source\PSoC4/cyfitter_cfg.c **** 			{0x04u, 0x25u},
 370:Generated_Source\PSoC4/cyfitter_cfg.c **** 			{0x05u, 0x80u},
 371:Generated_Source\PSoC4/cyfitter_cfg.c **** 			{0x06u, 0x28u},
 372:Generated_Source\PSoC4/cyfitter_cfg.c **** 			{0x0Cu, 0x04u},
 373:Generated_Source\PSoC4/cyfitter_cfg.c **** 			{0x0Du, 0x81u},
 374:Generated_Source\PSoC4/cyfitter_cfg.c **** 			{0x0Eu, 0x09u},
 375:Generated_Source\PSoC4/cyfitter_cfg.c **** 			{0x14u, 0x20u},
 376:Generated_Source\PSoC4/cyfitter_cfg.c **** 			{0x16u, 0x80u},
 377:Generated_Source\PSoC4/cyfitter_cfg.c **** 			{0x17u, 0x60u},
 378:Generated_Source\PSoC4/cyfitter_cfg.c **** 			{0x1Fu, 0x40u},
ARM GAS  C:\Users\bogda\AppData\Local\Temp\ccSIJY9Y.s 			page 14


 379:Generated_Source\PSoC4/cyfitter_cfg.c **** 			{0x26u, 0x40u},
 380:Generated_Source\PSoC4/cyfitter_cfg.c **** 			{0x27u, 0x40u},
 381:Generated_Source\PSoC4/cyfitter_cfg.c **** 			{0x2Eu, 0x28u},
 382:Generated_Source\PSoC4/cyfitter_cfg.c **** 			{0x2Fu, 0x41u},
 383:Generated_Source\PSoC4/cyfitter_cfg.c **** 			{0x34u, 0x04u},
 384:Generated_Source\PSoC4/cyfitter_cfg.c **** 			{0x35u, 0x80u},
 385:Generated_Source\PSoC4/cyfitter_cfg.c **** 			{0x37u, 0x21u},
 386:Generated_Source\PSoC4/cyfitter_cfg.c **** 			{0x3Cu, 0x48u},
 387:Generated_Source\PSoC4/cyfitter_cfg.c **** 			{0x3Eu, 0x11u},
 388:Generated_Source\PSoC4/cyfitter_cfg.c **** 			{0x5Eu, 0x80u},
 389:Generated_Source\PSoC4/cyfitter_cfg.c **** 			{0x6Du, 0x10u},
 390:Generated_Source\PSoC4/cyfitter_cfg.c **** 			{0x6Eu, 0x06u},
 391:Generated_Source\PSoC4/cyfitter_cfg.c **** 			{0x6Fu, 0x11u},
 392:Generated_Source\PSoC4/cyfitter_cfg.c **** 			{0x74u, 0x4Au},
 393:Generated_Source\PSoC4/cyfitter_cfg.c **** 			{0x77u, 0x08u},
 394:Generated_Source\PSoC4/cyfitter_cfg.c **** 			{0x7Du, 0x80u},
 395:Generated_Source\PSoC4/cyfitter_cfg.c **** 			{0x83u, 0x10u},
 396:Generated_Source\PSoC4/cyfitter_cfg.c **** 			{0x85u, 0x40u},
 397:Generated_Source\PSoC4/cyfitter_cfg.c **** 			{0x89u, 0x80u},
 398:Generated_Source\PSoC4/cyfitter_cfg.c **** 			{0x8Bu, 0x20u},
 399:Generated_Source\PSoC4/cyfitter_cfg.c **** 			{0x8Cu, 0x28u},
 400:Generated_Source\PSoC4/cyfitter_cfg.c **** 			{0xC0u, 0xF0u},
 401:Generated_Source\PSoC4/cyfitter_cfg.c **** 			{0xC2u, 0xF0u},
 402:Generated_Source\PSoC4/cyfitter_cfg.c **** 			{0xC4u, 0xF0u},
 403:Generated_Source\PSoC4/cyfitter_cfg.c **** 			{0xCAu, 0xF0u},
 404:Generated_Source\PSoC4/cyfitter_cfg.c **** 			{0xCCu, 0xF0u},
 405:Generated_Source\PSoC4/cyfitter_cfg.c **** 			{0xCEu, 0xF0u},
 406:Generated_Source\PSoC4/cyfitter_cfg.c **** 			{0xD6u, 0x10u},
 407:Generated_Source\PSoC4/cyfitter_cfg.c **** 			{0xDEu, 0x10u},
 408:Generated_Source\PSoC4/cyfitter_cfg.c **** 			{0xE0u, 0x40u},
 409:Generated_Source\PSoC4/cyfitter_cfg.c **** 			{0xE4u, 0x80u},
 410:Generated_Source\PSoC4/cyfitter_cfg.c **** 			{0x00u, 0x01u},
 411:Generated_Source\PSoC4/cyfitter_cfg.c **** 			{0x02u, 0x02u},
 412:Generated_Source\PSoC4/cyfitter_cfg.c **** 			{0x07u, 0x04u},
 413:Generated_Source\PSoC4/cyfitter_cfg.c **** 			{0x0Au, 0x10u},
 414:Generated_Source\PSoC4/cyfitter_cfg.c **** 			{0x0Fu, 0x10u},
 415:Generated_Source\PSoC4/cyfitter_cfg.c **** 			{0x12u, 0x04u},
 416:Generated_Source\PSoC4/cyfitter_cfg.c **** 			{0x13u, 0x08u},
 417:Generated_Source\PSoC4/cyfitter_cfg.c **** 			{0x19u, 0x01u},
 418:Generated_Source\PSoC4/cyfitter_cfg.c **** 			{0x1Bu, 0x02u},
 419:Generated_Source\PSoC4/cyfitter_cfg.c **** 			{0x20u, 0x01u},
 420:Generated_Source\PSoC4/cyfitter_cfg.c **** 			{0x22u, 0x02u},
 421:Generated_Source\PSoC4/cyfitter_cfg.c **** 			{0x2Au, 0x08u},
 422:Generated_Source\PSoC4/cyfitter_cfg.c **** 			{0x2Du, 0x01u},
 423:Generated_Source\PSoC4/cyfitter_cfg.c **** 			{0x2Fu, 0x02u},
 424:Generated_Source\PSoC4/cyfitter_cfg.c **** 			{0x30u, 0x04u},
 425:Generated_Source\PSoC4/cyfitter_cfg.c **** 			{0x31u, 0x03u},
 426:Generated_Source\PSoC4/cyfitter_cfg.c **** 			{0x32u, 0x03u},
 427:Generated_Source\PSoC4/cyfitter_cfg.c **** 			{0x33u, 0x08u},
 428:Generated_Source\PSoC4/cyfitter_cfg.c **** 			{0x34u, 0x10u},
 429:Generated_Source\PSoC4/cyfitter_cfg.c **** 			{0x35u, 0x04u},
 430:Generated_Source\PSoC4/cyfitter_cfg.c **** 			{0x36u, 0x08u},
 431:Generated_Source\PSoC4/cyfitter_cfg.c **** 			{0x37u, 0x10u},
 432:Generated_Source\PSoC4/cyfitter_cfg.c **** 			{0x3Eu, 0x04u},
 433:Generated_Source\PSoC4/cyfitter_cfg.c **** 			{0x3Fu, 0x01u},
 434:Generated_Source\PSoC4/cyfitter_cfg.c **** 			{0x58u, 0x08u},
 435:Generated_Source\PSoC4/cyfitter_cfg.c **** 			{0x59u, 0x08u},
ARM GAS  C:\Users\bogda\AppData\Local\Temp\ccSIJY9Y.s 			page 15


 436:Generated_Source\PSoC4/cyfitter_cfg.c **** 			{0x5Bu, 0x04u},
 437:Generated_Source\PSoC4/cyfitter_cfg.c **** 			{0x5Cu, 0x99u},
 438:Generated_Source\PSoC4/cyfitter_cfg.c **** 			{0x5Fu, 0x01u},
 439:Generated_Source\PSoC4/cyfitter_cfg.c **** 			{0xAAu, 0x01u},
 440:Generated_Source\PSoC4/cyfitter_cfg.c **** 			{0xB6u, 0x01u},
 441:Generated_Source\PSoC4/cyfitter_cfg.c **** 			{0xD8u, 0x08u},
 442:Generated_Source\PSoC4/cyfitter_cfg.c **** 			{0xDCu, 0x09u},
 443:Generated_Source\PSoC4/cyfitter_cfg.c **** 			{0xDFu, 0x01u},
 444:Generated_Source\PSoC4/cyfitter_cfg.c **** 			{0x05u, 0x01u},
 445:Generated_Source\PSoC4/cyfitter_cfg.c **** 			{0x07u, 0x08u},
 446:Generated_Source\PSoC4/cyfitter_cfg.c **** 			{0x0Cu, 0x02u},
 447:Generated_Source\PSoC4/cyfitter_cfg.c **** 			{0x10u, 0x08u},
 448:Generated_Source\PSoC4/cyfitter_cfg.c **** 			{0x15u, 0x10u},
 449:Generated_Source\PSoC4/cyfitter_cfg.c **** 			{0x16u, 0x80u},
 450:Generated_Source\PSoC4/cyfitter_cfg.c **** 			{0x19u, 0x80u},
 451:Generated_Source\PSoC4/cyfitter_cfg.c **** 			{0x1Cu, 0x01u},
 452:Generated_Source\PSoC4/cyfitter_cfg.c **** 			{0x1Du, 0x01u},
 453:Generated_Source\PSoC4/cyfitter_cfg.c **** 			{0x1Eu, 0x18u},
 454:Generated_Source\PSoC4/cyfitter_cfg.c **** 			{0x24u, 0x64u},
 455:Generated_Source\PSoC4/cyfitter_cfg.c **** 			{0x25u, 0x80u},
 456:Generated_Source\PSoC4/cyfitter_cfg.c **** 			{0x2Du, 0x80u},
 457:Generated_Source\PSoC4/cyfitter_cfg.c **** 			{0x34u, 0x20u},
 458:Generated_Source\PSoC4/cyfitter_cfg.c **** 			{0x36u, 0x01u},
 459:Generated_Source\PSoC4/cyfitter_cfg.c **** 			{0x3Cu, 0x80u},
 460:Generated_Source\PSoC4/cyfitter_cfg.c **** 			{0x3Eu, 0x04u},
 461:Generated_Source\PSoC4/cyfitter_cfg.c **** 			{0x6Du, 0xC0u},
 462:Generated_Source\PSoC4/cyfitter_cfg.c **** 			{0x79u, 0x40u},
 463:Generated_Source\PSoC4/cyfitter_cfg.c **** 			{0x7Du, 0x80u},
 464:Generated_Source\PSoC4/cyfitter_cfg.c **** 			{0x82u, 0x80u},
 465:Generated_Source\PSoC4/cyfitter_cfg.c **** 			{0x84u, 0x60u},
 466:Generated_Source\PSoC4/cyfitter_cfg.c **** 			{0x87u, 0x08u},
 467:Generated_Source\PSoC4/cyfitter_cfg.c **** 			{0x91u, 0x10u},
 468:Generated_Source\PSoC4/cyfitter_cfg.c **** 			{0x92u, 0x04u},
 469:Generated_Source\PSoC4/cyfitter_cfg.c **** 			{0x94u, 0x65u},
 470:Generated_Source\PSoC4/cyfitter_cfg.c **** 			{0x96u, 0x10u},
 471:Generated_Source\PSoC4/cyfitter_cfg.c **** 			{0x9Bu, 0x08u},
 472:Generated_Source\PSoC4/cyfitter_cfg.c **** 			{0xA0u, 0x4Au},
 473:Generated_Source\PSoC4/cyfitter_cfg.c **** 			{0xA2u, 0x01u},
 474:Generated_Source\PSoC4/cyfitter_cfg.c **** 			{0xA5u, 0xC0u},
 475:Generated_Source\PSoC4/cyfitter_cfg.c **** 			{0xA6u, 0x04u},
 476:Generated_Source\PSoC4/cyfitter_cfg.c **** 			{0xAAu, 0x80u},
 477:Generated_Source\PSoC4/cyfitter_cfg.c **** 			{0xACu, 0x06u},
 478:Generated_Source\PSoC4/cyfitter_cfg.c **** 			{0xADu, 0x01u},
 479:Generated_Source\PSoC4/cyfitter_cfg.c **** 			{0xAFu, 0x01u},
 480:Generated_Source\PSoC4/cyfitter_cfg.c **** 			{0xB0u, 0x04u},
 481:Generated_Source\PSoC4/cyfitter_cfg.c **** 			{0xB1u, 0x10u},
 482:Generated_Source\PSoC4/cyfitter_cfg.c **** 			{0xB6u, 0x05u},
 483:Generated_Source\PSoC4/cyfitter_cfg.c **** 			{0xB7u, 0x01u},
 484:Generated_Source\PSoC4/cyfitter_cfg.c **** 			{0xC0u, 0x50u},
 485:Generated_Source\PSoC4/cyfitter_cfg.c **** 			{0xC2u, 0x10u},
 486:Generated_Source\PSoC4/cyfitter_cfg.c **** 			{0xC4u, 0x52u},
 487:Generated_Source\PSoC4/cyfitter_cfg.c **** 			{0xCAu, 0x10u},
 488:Generated_Source\PSoC4/cyfitter_cfg.c **** 			{0xCCu, 0xA0u},
 489:Generated_Source\PSoC4/cyfitter_cfg.c **** 			{0xCEu, 0x50u},
 490:Generated_Source\PSoC4/cyfitter_cfg.c **** 			{0xDEu, 0x18u},
 491:Generated_Source\PSoC4/cyfitter_cfg.c **** 			{0xE8u, 0x08u},
 492:Generated_Source\PSoC4/cyfitter_cfg.c **** 			{0xEAu, 0x81u},
ARM GAS  C:\Users\bogda\AppData\Local\Temp\ccSIJY9Y.s 			page 16


 493:Generated_Source\PSoC4/cyfitter_cfg.c **** 			{0xECu, 0x80u},
 494:Generated_Source\PSoC4/cyfitter_cfg.c **** 			{0x04u, 0x40u},
 495:Generated_Source\PSoC4/cyfitter_cfg.c **** 			{0x06u, 0x20u},
 496:Generated_Source\PSoC4/cyfitter_cfg.c **** 			{0x0Bu, 0x10u},
 497:Generated_Source\PSoC4/cyfitter_cfg.c **** 			{0x54u, 0x01u},
 498:Generated_Source\PSoC4/cyfitter_cfg.c **** 			{0x56u, 0x80u},
 499:Generated_Source\PSoC4/cyfitter_cfg.c **** 			{0x58u, 0x01u},
 500:Generated_Source\PSoC4/cyfitter_cfg.c **** 			{0x83u, 0x40u},
 501:Generated_Source\PSoC4/cyfitter_cfg.c **** 			{0x86u, 0x80u},
 502:Generated_Source\PSoC4/cyfitter_cfg.c **** 			{0x8Bu, 0x10u},
 503:Generated_Source\PSoC4/cyfitter_cfg.c **** 			{0x8Cu, 0x40u},
 504:Generated_Source\PSoC4/cyfitter_cfg.c **** 			{0xC0u, 0xA0u},
 505:Generated_Source\PSoC4/cyfitter_cfg.c **** 			{0xC2u, 0x10u},
 506:Generated_Source\PSoC4/cyfitter_cfg.c **** 			{0xD4u, 0x40u},
 507:Generated_Source\PSoC4/cyfitter_cfg.c **** 			{0xD6u, 0x60u},
 508:Generated_Source\PSoC4/cyfitter_cfg.c **** 			{0xE2u, 0x60u},
 509:Generated_Source\PSoC4/cyfitter_cfg.c **** 			{0x01u, 0x10u},
 510:Generated_Source\PSoC4/cyfitter_cfg.c **** 			{0x02u, 0x20u},
 511:Generated_Source\PSoC4/cyfitter_cfg.c **** 			{0x07u, 0x04u},
 512:Generated_Source\PSoC4/cyfitter_cfg.c **** 			{0x5Fu, 0x14u},
 513:Generated_Source\PSoC4/cyfitter_cfg.c **** 			{0x63u, 0x80u},
 514:Generated_Source\PSoC4/cyfitter_cfg.c **** 			{0x83u, 0x04u},
 515:Generated_Source\PSoC4/cyfitter_cfg.c **** 			{0x85u, 0x10u},
 516:Generated_Source\PSoC4/cyfitter_cfg.c **** 			{0x87u, 0x14u},
 517:Generated_Source\PSoC4/cyfitter_cfg.c **** 			{0xA3u, 0x40u},
 518:Generated_Source\PSoC4/cyfitter_cfg.c **** 			{0xA6u, 0x20u},
 519:Generated_Source\PSoC4/cyfitter_cfg.c **** 			{0xACu, 0x01u},
 520:Generated_Source\PSoC4/cyfitter_cfg.c **** 			{0xAEu, 0x20u},
 521:Generated_Source\PSoC4/cyfitter_cfg.c **** 			{0xB0u, 0x01u},
 522:Generated_Source\PSoC4/cyfitter_cfg.c **** 			{0xB2u, 0x20u},
 523:Generated_Source\PSoC4/cyfitter_cfg.c **** 			{0xC0u, 0xD0u},
 524:Generated_Source\PSoC4/cyfitter_cfg.c **** 			{0xD6u, 0xA0u},
 525:Generated_Source\PSoC4/cyfitter_cfg.c **** 			{0xD8u, 0x40u},
 526:Generated_Source\PSoC4/cyfitter_cfg.c **** 			{0xE0u, 0x80u},
 527:Generated_Source\PSoC4/cyfitter_cfg.c **** 			{0xE2u, 0x50u},
 528:Generated_Source\PSoC4/cyfitter_cfg.c **** 			{0xE4u, 0x10u},
 529:Generated_Source\PSoC4/cyfitter_cfg.c **** 			{0xEAu, 0x40u},
 530:Generated_Source\PSoC4/cyfitter_cfg.c **** 			{0xECu, 0x40u},
 531:Generated_Source\PSoC4/cyfitter_cfg.c **** 			{0x02u, 0x02u},
 532:Generated_Source\PSoC4/cyfitter_cfg.c **** 			{0x07u, 0x80u},
 533:Generated_Source\PSoC4/cyfitter_cfg.c **** 			{0x51u, 0x20u},
 534:Generated_Source\PSoC4/cyfitter_cfg.c **** 			{0x55u, 0x08u},
 535:Generated_Source\PSoC4/cyfitter_cfg.c **** 			{0x5Fu, 0x02u},
 536:Generated_Source\PSoC4/cyfitter_cfg.c **** 			{0x8Au, 0x02u},
 537:Generated_Source\PSoC4/cyfitter_cfg.c **** 			{0x8Du, 0x08u},
 538:Generated_Source\PSoC4/cyfitter_cfg.c **** 			{0xC0u, 0x06u},
 539:Generated_Source\PSoC4/cyfitter_cfg.c **** 			{0xD4u, 0x06u},
 540:Generated_Source\PSoC4/cyfitter_cfg.c **** 			{0xD6u, 0x01u},
 541:Generated_Source\PSoC4/cyfitter_cfg.c **** 			{0xE4u, 0x08u},
 542:Generated_Source\PSoC4/cyfitter_cfg.c **** 			{0xE6u, 0x04u},
 543:Generated_Source\PSoC4/cyfitter_cfg.c **** 			{0xABu, 0x80u},
 544:Generated_Source\PSoC4/cyfitter_cfg.c **** 			{0xADu, 0x20u},
 545:Generated_Source\PSoC4/cyfitter_cfg.c **** 			{0xB7u, 0x02u},
 546:Generated_Source\PSoC4/cyfitter_cfg.c **** 			{0xE8u, 0x08u},
 547:Generated_Source\PSoC4/cyfitter_cfg.c **** 			{0x02u, 0x01u},
 548:Generated_Source\PSoC4/cyfitter_cfg.c **** 			{0x11u, 0x01u},
 549:Generated_Source\PSoC4/cyfitter_cfg.c **** 		};
ARM GAS  C:\Users\bogda\AppData\Local\Temp\ccSIJY9Y.s 			page 17


 550:Generated_Source\PSoC4/cyfitter_cfg.c **** 
 551:Generated_Source\PSoC4/cyfitter_cfg.c **** 
 552:Generated_Source\PSoC4/cyfitter_cfg.c **** 
 553:Generated_Source\PSoC4/cyfitter_cfg.c **** 		CYPACKED typedef struct {
 554:Generated_Source\PSoC4/cyfitter_cfg.c **** 			void CYFAR *address;
 555:Generated_Source\PSoC4/cyfitter_cfg.c **** 			uint16 size;
 556:Generated_Source\PSoC4/cyfitter_cfg.c **** 		} CYPACKED_ATTR cfg_memset_t;
 557:Generated_Source\PSoC4/cyfitter_cfg.c **** 
 558:Generated_Source\PSoC4/cyfitter_cfg.c **** 		static const cfg_memset_t CYCODE cfg_memset_list[] = {
 559:Generated_Source\PSoC4/cyfitter_cfg.c **** 			/* address, size */
 560:Generated_Source\PSoC4/cyfitter_cfg.c **** 			{(void CYFAR *)(CYDEV_UDB_P0_U0_BASE), 1024u},
 561:Generated_Source\PSoC4/cyfitter_cfg.c **** 			{(void CYFAR *)(CYDEV_UDB_DSI0_BASE), 1024u},
 562:Generated_Source\PSoC4/cyfitter_cfg.c **** 		};
 563:Generated_Source\PSoC4/cyfitter_cfg.c **** 
 564:Generated_Source\PSoC4/cyfitter_cfg.c **** 		uint8 CYDATA i;
 565:Generated_Source\PSoC4/cyfitter_cfg.c **** 
 566:Generated_Source\PSoC4/cyfitter_cfg.c **** 		/* Zero out critical memory blocks before beginning configuration */
 567:Generated_Source\PSoC4/cyfitter_cfg.c **** 		for (i = 0u; i < (sizeof(cfg_memset_list)/sizeof(cfg_memset_list[0])); i++)
 333              		.loc 1 567 0
 334 00f6 0024     		movs	r4, #0
 335 00f8 0FE0     		b	.L14
 336              	.LVL24:
 337              	.L15:
 338              	.LBB4:
 568:Generated_Source\PSoC4/cyfitter_cfg.c **** 		{
 569:Generated_Source\PSoC4/cyfitter_cfg.c **** 			const cfg_memset_t CYCODE * CYDATA ms = &cfg_memset_list[i];
 570:Generated_Source\PSoC4/cyfitter_cfg.c **** 			CYMEMZERO(ms->address, (size_t)(uint32)(ms->size));
 339              		.loc 1 570 0 discriminator 3
 340 00fa 3148     		ldr	r0, .L16+4
 341 00fc 6200     		lsls	r2, r4, #1
 342 00fe 1319     		adds	r3, r2, r4
 343 0100 5900     		lsls	r1, r3, #1
 344 0102 0B00     		movs	r3, r1
 345 0104 4118     		adds	r1, r0, r1
 346 0106 8988     		ldrh	r1, [r1, #4]
 347 0108 1A5A     		ldrh	r2, [r3, r0]
 348 010a C318     		adds	r3, r0, r3
 349 010c 5888     		ldrh	r0, [r3, #2]
 350 010e 0004     		lsls	r0, r0, #16
 351 0110 1043     		orrs	r0, r2
 352 0112 FFF7FEFF 		bl	CYMEMZERO
 353              	.LVL25:
 354              	.LBE4:
 567:Generated_Source\PSoC4/cyfitter_cfg.c **** 		{
 355              		.loc 1 567 0 discriminator 3
 356 0116 0134     		adds	r4, r4, #1
 357              	.LVL26:
 358 0118 E4B2     		uxtb	r4, r4
 359              	.LVL27:
 360              	.L14:
 567:Generated_Source\PSoC4/cyfitter_cfg.c **** 		{
 361              		.loc 1 567 0 is_stmt 0 discriminator 1
 362 011a 012C     		cmp	r4, #1
 363 011c EDD9     		bls	.L15
 571:Generated_Source\PSoC4/cyfitter_cfg.c **** 		}
 572:Generated_Source\PSoC4/cyfitter_cfg.c **** 
 573:Generated_Source\PSoC4/cyfitter_cfg.c **** 		cfg_write_bytes32(cy_cfg_addr_table, cy_cfg_data_table);
ARM GAS  C:\Users\bogda\AppData\Local\Temp\ccSIJY9Y.s 			page 18


 364              		.loc 1 573 0 is_stmt 1
 365 011e 2849     		ldr	r1, .L16+4
 366 0120 0C31     		adds	r1, r1, #12
 367 0122 2848     		ldr	r0, .L16+8
 368 0124 4430     		adds	r0, r0, #68
 369 0126 FFF7FEFF 		bl	cfg_write_bytes32
 370              	.LVL28:
 574:Generated_Source\PSoC4/cyfitter_cfg.c **** 
 575:Generated_Source\PSoC4/cyfitter_cfg.c **** 		/* HSIOM Starting address: CYDEV_HSIOM_BASE */
 576:Generated_Source\PSoC4/cyfitter_cfg.c **** 		CY_SET_REG32((void *)(CYDEV_HSIOM_BASE), 0xEE300303u);
 371              		.loc 1 576 0
 372 012a 274A     		ldr	r2, .L16+12
 373 012c 274B     		ldr	r3, .L16+16
 374 012e 1A60     		str	r2, [r3]
 577:Generated_Source\PSoC4/cyfitter_cfg.c **** 		CY_SET_REG32((void *)(CYREG_HSIOM_PORT_SEL1), 0x33990030u);
 375              		.loc 1 577 0
 376 0130 274A     		ldr	r2, .L16+20
 377 0132 284B     		ldr	r3, .L16+24
 378 0134 1A60     		str	r2, [r3]
 578:Generated_Source\PSoC4/cyfitter_cfg.c **** 		CY_SET_REG32((void *)(CYREG_HSIOM_PORT_SEL2), 0x00333003u);
 379              		.loc 1 578 0
 380 0136 284A     		ldr	r2, .L16+28
 381 0138 284B     		ldr	r3, .L16+32
 382 013a 1A60     		str	r2, [r3]
 579:Generated_Source\PSoC4/cyfitter_cfg.c **** 
 580:Generated_Source\PSoC4/cyfitter_cfg.c **** 		/* UDB_PA_0 Starting address: CYDEV_UDB_PA0_BASE */
 581:Generated_Source\PSoC4/cyfitter_cfg.c **** 		CY_SET_REG32((void *)(CYDEV_UDB_PA0_BASE), 0x00990000u);
 383              		.loc 1 581 0
 384 013c 9923     		movs	r3, #153
 385 013e 1B04     		lsls	r3, r3, #16
 386 0140 274A     		ldr	r2, .L16+36
 387 0142 1360     		str	r3, [r2]
 582:Generated_Source\PSoC4/cyfitter_cfg.c **** 		CY_SET_REG32((void *)(CYREG_UDB_PA0_CFG8), 0x51310000u);
 388              		.loc 1 582 0
 389 0144 2749     		ldr	r1, .L16+40
 390 0146 284A     		ldr	r2, .L16+44
 391 0148 1160     		str	r1, [r2]
 583:Generated_Source\PSoC4/cyfitter_cfg.c **** 
 584:Generated_Source\PSoC4/cyfitter_cfg.c **** 		/* UDB_PA_1 Starting address: CYDEV_UDB_PA1_BASE */
 585:Generated_Source\PSoC4/cyfitter_cfg.c **** 		CY_SET_REG32((void *)(CYDEV_UDB_PA1_BASE), 0x00990000u);
 392              		.loc 1 585 0
 393 014a 284A     		ldr	r2, .L16+48
 394 014c 1360     		str	r3, [r2]
 586:Generated_Source\PSoC4/cyfitter_cfg.c **** 		CY_SET_REG32((void *)(CYREG_UDB_PA1_CFG8), 0x900C0000u);
 395              		.loc 1 586 0
 396 014e 2849     		ldr	r1, .L16+52
 397 0150 284A     		ldr	r2, .L16+56
 398 0152 1160     		str	r1, [r2]
 587:Generated_Source\PSoC4/cyfitter_cfg.c **** 
 588:Generated_Source\PSoC4/cyfitter_cfg.c **** 		/* UDB_PA_2 Starting address: CYDEV_UDB_PA2_BASE */
 589:Generated_Source\PSoC4/cyfitter_cfg.c **** 		CY_SET_REG32((void *)(CYDEV_UDB_PA2_BASE), 0x00990000u);
 399              		.loc 1 589 0
 400 0154 284A     		ldr	r2, .L16+60
 401 0156 1360     		str	r3, [r2]
 590:Generated_Source\PSoC4/cyfitter_cfg.c **** 		CY_SET_REG32((void *)(CYREG_UDB_PA2_CFG8), 0x01680000u);
 402              		.loc 1 590 0
 403 0158 B421     		movs	r1, #180
ARM GAS  C:\Users\bogda\AppData\Local\Temp\ccSIJY9Y.s 			page 19


 404 015a 4904     		lsls	r1, r1, #17
 405 015c 274A     		ldr	r2, .L16+64
 406 015e 1160     		str	r1, [r2]
 591:Generated_Source\PSoC4/cyfitter_cfg.c **** 
 592:Generated_Source\PSoC4/cyfitter_cfg.c **** 		/* UDB_PA_3 Starting address: CYDEV_UDB_PA3_BASE */
 593:Generated_Source\PSoC4/cyfitter_cfg.c **** 		CY_SET_REG32((void *)(CYDEV_UDB_PA3_BASE), 0x00990000u);
 407              		.loc 1 593 0
 408 0160 274A     		ldr	r2, .L16+68
 409 0162 1360     		str	r3, [r2]
 594:Generated_Source\PSoC4/cyfitter_cfg.c **** 
 595:Generated_Source\PSoC4/cyfitter_cfg.c **** 		/* Enable UDB array and digital routing */
 596:Generated_Source\PSoC4/cyfitter_cfg.c **** 		CY_SET_XTND_REG8((void *)CYREG_UDB_UDBIF_WAIT_CFG, (uint8)((CY_GET_XTND_REG8((void *)CYREG_UDB_UD
 410              		.loc 1 596 0
 411 0164 2749     		ldr	r1, .L16+72
 412 0166 0B78     		ldrb	r3, [r1]
 413 0168 3C22     		movs	r2, #60
 414 016a 9343     		bics	r3, r2
 415 016c 1422     		movs	r2, #20
 416 016e 1343     		orrs	r3, r2
 417 0170 DBB2     		uxtb	r3, r3
 418 0172 0B70     		strb	r3, [r1]
 597:Generated_Source\PSoC4/cyfitter_cfg.c **** 		CY_SET_XTND_REG8((void *)CYREG_UDB_UDBIF_BANK_CTL, (uint8)(CY_GET_XTND_REG8((void *)CYREG_UDB_UDB
 419              		.loc 1 597 0
 420 0174 244A     		ldr	r2, .L16+76
 421 0176 1178     		ldrb	r1, [r2]
 422 0178 1623     		movs	r3, #22
 423 017a 0B43     		orrs	r3, r1
 424 017c DBB2     		uxtb	r3, r3
 425 017e 1370     		strb	r3, [r2]
 426              	.LBE3:
 598:Generated_Source\PSoC4/cyfitter_cfg.c **** 	}
 599:Generated_Source\PSoC4/cyfitter_cfg.c **** 
 600:Generated_Source\PSoC4/cyfitter_cfg.c **** 	/* Perform second pass device configuration. These items must be configured in specific order afte
 601:Generated_Source\PSoC4/cyfitter_cfg.c **** 	/* IOPINS0_0 Starting address: CYDEV_GPIO_PRT0_BASE */
 602:Generated_Source\PSoC4/cyfitter_cfg.c **** 	CY_SET_REG32((void *)(CYDEV_GPIO_PRT0_BASE), 0x00000025u);
 427              		.loc 1 602 0
 428 0180 2522     		movs	r2, #37
 429 0182 224B     		ldr	r3, .L16+80
 430 0184 1A60     		str	r2, [r3]
 603:Generated_Source\PSoC4/cyfitter_cfg.c **** 	CY_SET_REG32((void *)(CYREG_GPIO_PRT0_PC), 0x00DB138Eu);
 431              		.loc 1 603 0
 432 0186 224A     		ldr	r2, .L16+84
 433 0188 224B     		ldr	r3, .L16+88
 434 018a 1A60     		str	r2, [r3]
 604:Generated_Source\PSoC4/cyfitter_cfg.c **** 
 605:Generated_Source\PSoC4/cyfitter_cfg.c **** 	/* IOPINS0_1 Starting address: CYDEV_GPIO_PRT1_BASE */
 606:Generated_Source\PSoC4/cyfitter_cfg.c **** 	CY_SET_REG32((void *)(CYDEV_GPIO_PRT1_BASE), 0x000000E2u);
 435              		.loc 1 606 0
 436 018c E222     		movs	r2, #226
 437 018e 224B     		ldr	r3, .L16+92
 438 0190 1A60     		str	r2, [r3]
 607:Generated_Source\PSoC4/cyfitter_cfg.c **** 	CY_SET_REG32((void *)(CYREG_GPIO_PRT1_PC), 0x00DB1271u);
 439              		.loc 1 607 0
 440 0192 224A     		ldr	r2, .L16+96
 441 0194 224B     		ldr	r3, .L16+100
 442 0196 1A60     		str	r2, [r3]
 608:Generated_Source\PSoC4/cyfitter_cfg.c **** 	CY_SET_REG32((void *)(CYREG_GPIO_PRT1_PC2), 0x00000020u);
ARM GAS  C:\Users\bogda\AppData\Local\Temp\ccSIJY9Y.s 			page 20


 443              		.loc 1 608 0
 444 0198 2022     		movs	r2, #32
 445 019a 224B     		ldr	r3, .L16+104
 446 019c 1A60     		str	r2, [r3]
 609:Generated_Source\PSoC4/cyfitter_cfg.c **** 
 610:Generated_Source\PSoC4/cyfitter_cfg.c **** 	/* IOPINS0_2 Starting address: CYDEV_GPIO_PRT2_BASE */
 611:Generated_Source\PSoC4/cyfitter_cfg.c **** 	CY_SET_REG32((void *)(CYDEV_GPIO_PRT2_BASE), 0x00000039u);
 447              		.loc 1 611 0
 448 019e 1932     		adds	r2, r2, #25
 449 01a0 214B     		ldr	r3, .L16+108
 450 01a2 1A60     		str	r2, [r3]
 612:Generated_Source\PSoC4/cyfitter_cfg.c **** 	CY_SET_REG32((void *)(CYREG_GPIO_PRT2_PC), 0x001B6C4Eu);
 451              		.loc 1 612 0
 452 01a4 214A     		ldr	r2, .L16+112
 453 01a6 224B     		ldr	r3, .L16+116
 454 01a8 1A60     		str	r2, [r3]
 613:Generated_Source\PSoC4/cyfitter_cfg.c **** 
 614:Generated_Source\PSoC4/cyfitter_cfg.c **** 	/* IOPINS0_3 Starting address: CYDEV_GPIO_PRT3_BASE */
 615:Generated_Source\PSoC4/cyfitter_cfg.c **** 	CY_SET_REG32((void *)(CYREG_GPIO_PRT3_PC), 0x00180000u);
 455              		.loc 1 615 0
 456 01aa C022     		movs	r2, #192
 457 01ac 5203     		lsls	r2, r2, #13
 458 01ae 214B     		ldr	r3, .L16+120
 459 01b0 1A60     		str	r2, [r3]
 616:Generated_Source\PSoC4/cyfitter_cfg.c **** 
 617:Generated_Source\PSoC4/cyfitter_cfg.c **** 
 618:Generated_Source\PSoC4/cyfitter_cfg.c **** 	/* Setup clocks based on selections from Clock DWR */
 619:Generated_Source\PSoC4/cyfitter_cfg.c **** 	ClockSetup();
 460              		.loc 1 619 0
 461 01b2 FFF725FF 		bl	ClockSetup
 462              	.LVL29:
 620:Generated_Source\PSoC4/cyfitter_cfg.c **** 
 621:Generated_Source\PSoC4/cyfitter_cfg.c **** 	/* Perform basic analog initialization to defaults */
 622:Generated_Source\PSoC4/cyfitter_cfg.c **** 	AnalogSetDefault();
 463              		.loc 1 622 0
 464 01b6 FFF7FEFF 		bl	AnalogSetDefault
 465              	.LVL30:
 623:Generated_Source\PSoC4/cyfitter_cfg.c **** 
 624:Generated_Source\PSoC4/cyfitter_cfg.c **** }
 466              		.loc 1 624 0
 467              		@ sp needed
 468              	.LVL31:
 469 01ba 10BD     		pop	{r4, pc}
 470              	.L17:
 471              		.align	2
 472              	.L16:
 473 01bc 6CF02E40 		.word	1076818028
 474 01c0 00000000 		.word	.LANCHOR0
 475 01c4 80010000 		.word	.LANCHOR1
 476 01c8 030330EE 		.word	-298843389
 477 01cc 00000240 		.word	1073872896
 478 01d0 30009933 		.word	865665072
 479 01d4 00010240 		.word	1073873152
 480 01d8 03303300 		.word	3354627
 481 01dc 00020240 		.word	1073873408
 482 01e0 00500F40 		.word	1074745344
 483 01e4 00003151 		.word	1362165760
ARM GAS  C:\Users\bogda\AppData\Local\Temp\ccSIJY9Y.s 			page 21


 484 01e8 08500F40 		.word	1074745352
 485 01ec 10500F40 		.word	1074745360
 486 01f0 00000C90 		.word	-1878261760
 487 01f4 18500F40 		.word	1074745368
 488 01f8 20500F40 		.word	1074745376
 489 01fc 28500F40 		.word	1074745384
 490 0200 30500F40 		.word	1074745392
 491 0204 01700F40 		.word	1074753537
 492 0208 00700F40 		.word	1074753536
 493 020c 00000440 		.word	1074003968
 494 0210 8E13DB00 		.word	14357390
 495 0214 08000440 		.word	1074003976
 496 0218 00010440 		.word	1074004224
 497 021c 7112DB00 		.word	14357105
 498 0220 08010440 		.word	1074004232
 499 0224 18010440 		.word	1074004248
 500 0228 00020440 		.word	1074004480
 501 022c 4E6C1B00 		.word	1797198
 502 0230 08020440 		.word	1074004488
 503 0234 08030440 		.word	1074004744
 504              		.cfi_endproc
 505              	.LFE8:
 506              		.size	cyfitter_cfg, .-cyfitter_cfg
 507              		.section	.rodata
 508              		.align	2
 509              		.set	.LANCHOR0,. + 0
 510              		.set	.LANCHOR1,. + 384
 511              		.type	cfg_memset_list.4916, %object
 512              		.size	cfg_memset_list.4916, 12
 513              	cfg_memset_list.4916:
 514 0000 00300F40 		.word	1074737152
 515 0004 0004     		.short	1024
 516 0006 00400F40 		.4byte	1074741248
 517 000a 0004     		.short	1024
 518              		.type	cy_cfg_data_table.4911, %object
 519              		.size	cy_cfg_data_table.4911, 438
 520              	cy_cfg_data_table.4911:
 521 000c 80       		.byte	-128
 522 000d 20       		.byte	32
 523 000e 82       		.byte	-126
 524 000f 10       		.byte	16
 525 0010 83       		.byte	-125
 526 0011 02       		.byte	2
 527 0012 84       		.byte	-124
 528 0013 08       		.byte	8
 529 0014 85       		.byte	-123
 530 0015 08       		.byte	8
 531 0016 88       		.byte	-120
 532 0017 04       		.byte	4
 533 0018 89       		.byte	-119
 534 0019 20       		.byte	32
 535 001a 8D       		.byte	-115
 536 001b 10       		.byte	16
 537 001c 8E       		.byte	-114
 538 001d 04       		.byte	4
 539 001e 92       		.byte	-110
 540 001f 08       		.byte	8
ARM GAS  C:\Users\bogda\AppData\Local\Temp\ccSIJY9Y.s 			page 22


 541 0020 93       		.byte	-109
 542 0021 80       		.byte	-128
 543 0022 95       		.byte	-107
 544 0023 01       		.byte	1
 545 0024 96       		.byte	-106
 546 0025 01       		.byte	1
 547 0026 98       		.byte	-104
 548 0027 01       		.byte	1
 549 0028 99       		.byte	-103
 550 0029 02       		.byte	2
 551 002a 9C       		.byte	-100
 552 002b 02       		.byte	2
 553 002c 9D       		.byte	-99
 554 002d 04       		.byte	4
 555 002e A0       		.byte	-96
 556 002f 10       		.byte	16
 557 0030 A2       		.byte	-94
 558 0031 20       		.byte	32
 559 0032 A3       		.byte	-93
 560 0033 40       		.byte	64
 561 0034 A4       		.byte	-92
 562 0035 40       		.byte	64
 563 0036 A6       		.byte	-90
 564 0037 80       		.byte	-128
 565 0038 A7       		.byte	-89
 566 0039 04       		.byte	4
 567 003a AA       		.byte	-86
 568 003b 02       		.byte	2
 569 003c AB       		.byte	-85
 570 003d 08       		.byte	8
 571 003e AC       		.byte	-84
 572 003f 80       		.byte	-128
 573 0040 AE       		.byte	-82
 574 0041 40       		.byte	64
 575 0042 AF       		.byte	-81
 576 0043 01       		.byte	1
 577 0044 B1       		.byte	-79
 578 0045 80       		.byte	-128
 579 0046 B6       		.byte	-74
 580 0047 FF       		.byte	-1
 581 0048 B7       		.byte	-73
 582 0049 7F       		.byte	127
 583 004a B9       		.byte	-71
 584 004b 80       		.byte	-128
 585 004c BE       		.byte	-66
 586 004d 40       		.byte	64
 587 004e BF       		.byte	-65
 588 004f 40       		.byte	64
 589 0050 D8       		.byte	-40
 590 0051 04       		.byte	4
 591 0052 D9       		.byte	-39
 592 0053 08       		.byte	8
 593 0054 DB       		.byte	-37
 594 0055 04       		.byte	4
 595 0056 DC       		.byte	-36
 596 0057 90       		.byte	-112
 597 0058 DF       		.byte	-33
ARM GAS  C:\Users\bogda\AppData\Local\Temp\ccSIJY9Y.s 			page 23


 598 0059 01       		.byte	1
 599 005a 04       		.byte	4
 600 005b 25       		.byte	37
 601 005c 05       		.byte	5
 602 005d 80       		.byte	-128
 603 005e 06       		.byte	6
 604 005f 28       		.byte	40
 605 0060 0C       		.byte	12
 606 0061 04       		.byte	4
 607 0062 0D       		.byte	13
 608 0063 81       		.byte	-127
 609 0064 0E       		.byte	14
 610 0065 09       		.byte	9
 611 0066 14       		.byte	20
 612 0067 20       		.byte	32
 613 0068 16       		.byte	22
 614 0069 80       		.byte	-128
 615 006a 17       		.byte	23
 616 006b 60       		.byte	96
 617 006c 1F       		.byte	31
 618 006d 40       		.byte	64
 619 006e 26       		.byte	38
 620 006f 40       		.byte	64
 621 0070 27       		.byte	39
 622 0071 40       		.byte	64
 623 0072 2E       		.byte	46
 624 0073 28       		.byte	40
 625 0074 2F       		.byte	47
 626 0075 41       		.byte	65
 627 0076 34       		.byte	52
 628 0077 04       		.byte	4
 629 0078 35       		.byte	53
 630 0079 80       		.byte	-128
 631 007a 37       		.byte	55
 632 007b 21       		.byte	33
 633 007c 3C       		.byte	60
 634 007d 48       		.byte	72
 635 007e 3E       		.byte	62
 636 007f 11       		.byte	17
 637 0080 5E       		.byte	94
 638 0081 80       		.byte	-128
 639 0082 6D       		.byte	109
 640 0083 10       		.byte	16
 641 0084 6E       		.byte	110
 642 0085 06       		.byte	6
 643 0086 6F       		.byte	111
 644 0087 11       		.byte	17
 645 0088 74       		.byte	116
 646 0089 4A       		.byte	74
 647 008a 77       		.byte	119
 648 008b 08       		.byte	8
 649 008c 7D       		.byte	125
 650 008d 80       		.byte	-128
 651 008e 83       		.byte	-125
 652 008f 10       		.byte	16
 653 0090 85       		.byte	-123
 654 0091 40       		.byte	64
ARM GAS  C:\Users\bogda\AppData\Local\Temp\ccSIJY9Y.s 			page 24


 655 0092 89       		.byte	-119
 656 0093 80       		.byte	-128
 657 0094 8B       		.byte	-117
 658 0095 20       		.byte	32
 659 0096 8C       		.byte	-116
 660 0097 28       		.byte	40
 661 0098 C0       		.byte	-64
 662 0099 F0       		.byte	-16
 663 009a C2       		.byte	-62
 664 009b F0       		.byte	-16
 665 009c C4       		.byte	-60
 666 009d F0       		.byte	-16
 667 009e CA       		.byte	-54
 668 009f F0       		.byte	-16
 669 00a0 CC       		.byte	-52
 670 00a1 F0       		.byte	-16
 671 00a2 CE       		.byte	-50
 672 00a3 F0       		.byte	-16
 673 00a4 D6       		.byte	-42
 674 00a5 10       		.byte	16
 675 00a6 DE       		.byte	-34
 676 00a7 10       		.byte	16
 677 00a8 E0       		.byte	-32
 678 00a9 40       		.byte	64
 679 00aa E4       		.byte	-28
 680 00ab 80       		.byte	-128
 681 00ac 00       		.byte	0
 682 00ad 01       		.byte	1
 683 00ae 02       		.byte	2
 684 00af 02       		.byte	2
 685 00b0 07       		.byte	7
 686 00b1 04       		.byte	4
 687 00b2 0A       		.byte	10
 688 00b3 10       		.byte	16
 689 00b4 0F       		.byte	15
 690 00b5 10       		.byte	16
 691 00b6 12       		.byte	18
 692 00b7 04       		.byte	4
 693 00b8 13       		.byte	19
 694 00b9 08       		.byte	8
 695 00ba 19       		.byte	25
 696 00bb 01       		.byte	1
 697 00bc 1B       		.byte	27
 698 00bd 02       		.byte	2
 699 00be 20       		.byte	32
 700 00bf 01       		.byte	1
 701 00c0 22       		.byte	34
 702 00c1 02       		.byte	2
 703 00c2 2A       		.byte	42
 704 00c3 08       		.byte	8
 705 00c4 2D       		.byte	45
 706 00c5 01       		.byte	1
 707 00c6 2F       		.byte	47
 708 00c7 02       		.byte	2
 709 00c8 30       		.byte	48
 710 00c9 04       		.byte	4
 711 00ca 31       		.byte	49
ARM GAS  C:\Users\bogda\AppData\Local\Temp\ccSIJY9Y.s 			page 25


 712 00cb 03       		.byte	3
 713 00cc 32       		.byte	50
 714 00cd 03       		.byte	3
 715 00ce 33       		.byte	51
 716 00cf 08       		.byte	8
 717 00d0 34       		.byte	52
 718 00d1 10       		.byte	16
 719 00d2 35       		.byte	53
 720 00d3 04       		.byte	4
 721 00d4 36       		.byte	54
 722 00d5 08       		.byte	8
 723 00d6 37       		.byte	55
 724 00d7 10       		.byte	16
 725 00d8 3E       		.byte	62
 726 00d9 04       		.byte	4
 727 00da 3F       		.byte	63
 728 00db 01       		.byte	1
 729 00dc 58       		.byte	88
 730 00dd 08       		.byte	8
 731 00de 59       		.byte	89
 732 00df 08       		.byte	8
 733 00e0 5B       		.byte	91
 734 00e1 04       		.byte	4
 735 00e2 5C       		.byte	92
 736 00e3 99       		.byte	-103
 737 00e4 5F       		.byte	95
 738 00e5 01       		.byte	1
 739 00e6 AA       		.byte	-86
 740 00e7 01       		.byte	1
 741 00e8 B6       		.byte	-74
 742 00e9 01       		.byte	1
 743 00ea D8       		.byte	-40
 744 00eb 08       		.byte	8
 745 00ec DC       		.byte	-36
 746 00ed 09       		.byte	9
 747 00ee DF       		.byte	-33
 748 00ef 01       		.byte	1
 749 00f0 05       		.byte	5
 750 00f1 01       		.byte	1
 751 00f2 07       		.byte	7
 752 00f3 08       		.byte	8
 753 00f4 0C       		.byte	12
 754 00f5 02       		.byte	2
 755 00f6 10       		.byte	16
 756 00f7 08       		.byte	8
 757 00f8 15       		.byte	21
 758 00f9 10       		.byte	16
 759 00fa 16       		.byte	22
 760 00fb 80       		.byte	-128
 761 00fc 19       		.byte	25
 762 00fd 80       		.byte	-128
 763 00fe 1C       		.byte	28
 764 00ff 01       		.byte	1
 765 0100 1D       		.byte	29
 766 0101 01       		.byte	1
 767 0102 1E       		.byte	30
 768 0103 18       		.byte	24
ARM GAS  C:\Users\bogda\AppData\Local\Temp\ccSIJY9Y.s 			page 26


 769 0104 24       		.byte	36
 770 0105 64       		.byte	100
 771 0106 25       		.byte	37
 772 0107 80       		.byte	-128
 773 0108 2D       		.byte	45
 774 0109 80       		.byte	-128
 775 010a 34       		.byte	52
 776 010b 20       		.byte	32
 777 010c 36       		.byte	54
 778 010d 01       		.byte	1
 779 010e 3C       		.byte	60
 780 010f 80       		.byte	-128
 781 0110 3E       		.byte	62
 782 0111 04       		.byte	4
 783 0112 6D       		.byte	109
 784 0113 C0       		.byte	-64
 785 0114 79       		.byte	121
 786 0115 40       		.byte	64
 787 0116 7D       		.byte	125
 788 0117 80       		.byte	-128
 789 0118 82       		.byte	-126
 790 0119 80       		.byte	-128
 791 011a 84       		.byte	-124
 792 011b 60       		.byte	96
 793 011c 87       		.byte	-121
 794 011d 08       		.byte	8
 795 011e 91       		.byte	-111
 796 011f 10       		.byte	16
 797 0120 92       		.byte	-110
 798 0121 04       		.byte	4
 799 0122 94       		.byte	-108
 800 0123 65       		.byte	101
 801 0124 96       		.byte	-106
 802 0125 10       		.byte	16
 803 0126 9B       		.byte	-101
 804 0127 08       		.byte	8
 805 0128 A0       		.byte	-96
 806 0129 4A       		.byte	74
 807 012a A2       		.byte	-94
 808 012b 01       		.byte	1
 809 012c A5       		.byte	-91
 810 012d C0       		.byte	-64
 811 012e A6       		.byte	-90
 812 012f 04       		.byte	4
 813 0130 AA       		.byte	-86
 814 0131 80       		.byte	-128
 815 0132 AC       		.byte	-84
 816 0133 06       		.byte	6
 817 0134 AD       		.byte	-83
 818 0135 01       		.byte	1
 819 0136 AF       		.byte	-81
 820 0137 01       		.byte	1
 821 0138 B0       		.byte	-80
 822 0139 04       		.byte	4
 823 013a B1       		.byte	-79
 824 013b 10       		.byte	16
 825 013c B6       		.byte	-74
ARM GAS  C:\Users\bogda\AppData\Local\Temp\ccSIJY9Y.s 			page 27


 826 013d 05       		.byte	5
 827 013e B7       		.byte	-73
 828 013f 01       		.byte	1
 829 0140 C0       		.byte	-64
 830 0141 50       		.byte	80
 831 0142 C2       		.byte	-62
 832 0143 10       		.byte	16
 833 0144 C4       		.byte	-60
 834 0145 52       		.byte	82
 835 0146 CA       		.byte	-54
 836 0147 10       		.byte	16
 837 0148 CC       		.byte	-52
 838 0149 A0       		.byte	-96
 839 014a CE       		.byte	-50
 840 014b 50       		.byte	80
 841 014c DE       		.byte	-34
 842 014d 18       		.byte	24
 843 014e E8       		.byte	-24
 844 014f 08       		.byte	8
 845 0150 EA       		.byte	-22
 846 0151 81       		.byte	-127
 847 0152 EC       		.byte	-20
 848 0153 80       		.byte	-128
 849 0154 04       		.byte	4
 850 0155 40       		.byte	64
 851 0156 06       		.byte	6
 852 0157 20       		.byte	32
 853 0158 0B       		.byte	11
 854 0159 10       		.byte	16
 855 015a 54       		.byte	84
 856 015b 01       		.byte	1
 857 015c 56       		.byte	86
 858 015d 80       		.byte	-128
 859 015e 58       		.byte	88
 860 015f 01       		.byte	1
 861 0160 83       		.byte	-125
 862 0161 40       		.byte	64
 863 0162 86       		.byte	-122
 864 0163 80       		.byte	-128
 865 0164 8B       		.byte	-117
 866 0165 10       		.byte	16
 867 0166 8C       		.byte	-116
 868 0167 40       		.byte	64
 869 0168 C0       		.byte	-64
 870 0169 A0       		.byte	-96
 871 016a C2       		.byte	-62
 872 016b 10       		.byte	16
 873 016c D4       		.byte	-44
 874 016d 40       		.byte	64
 875 016e D6       		.byte	-42
 876 016f 60       		.byte	96
 877 0170 E2       		.byte	-30
 878 0171 60       		.byte	96
 879 0172 01       		.byte	1
 880 0173 10       		.byte	16
 881 0174 02       		.byte	2
 882 0175 20       		.byte	32
ARM GAS  C:\Users\bogda\AppData\Local\Temp\ccSIJY9Y.s 			page 28


 883 0176 07       		.byte	7
 884 0177 04       		.byte	4
 885 0178 5F       		.byte	95
 886 0179 14       		.byte	20
 887 017a 63       		.byte	99
 888 017b 80       		.byte	-128
 889 017c 83       		.byte	-125
 890 017d 04       		.byte	4
 891 017e 85       		.byte	-123
 892 017f 10       		.byte	16
 893 0180 87       		.byte	-121
 894 0181 14       		.byte	20
 895 0182 A3       		.byte	-93
 896 0183 40       		.byte	64
 897 0184 A6       		.byte	-90
 898 0185 20       		.byte	32
 899 0186 AC       		.byte	-84
 900 0187 01       		.byte	1
 901 0188 AE       		.byte	-82
 902 0189 20       		.byte	32
 903 018a B0       		.byte	-80
 904 018b 01       		.byte	1
 905 018c B2       		.byte	-78
 906 018d 20       		.byte	32
 907 018e C0       		.byte	-64
 908 018f D0       		.byte	-48
 909 0190 D6       		.byte	-42
 910 0191 A0       		.byte	-96
 911 0192 D8       		.byte	-40
 912 0193 40       		.byte	64
 913 0194 E0       		.byte	-32
 914 0195 80       		.byte	-128
 915 0196 E2       		.byte	-30
 916 0197 50       		.byte	80
 917 0198 E4       		.byte	-28
 918 0199 10       		.byte	16
 919 019a EA       		.byte	-22
 920 019b 40       		.byte	64
 921 019c EC       		.byte	-20
 922 019d 40       		.byte	64
 923 019e 02       		.byte	2
 924 019f 02       		.byte	2
 925 01a0 07       		.byte	7
 926 01a1 80       		.byte	-128
 927 01a2 51       		.byte	81
 928 01a3 20       		.byte	32
 929 01a4 55       		.byte	85
 930 01a5 08       		.byte	8
 931 01a6 5F       		.byte	95
 932 01a7 02       		.byte	2
 933 01a8 8A       		.byte	-118
 934 01a9 02       		.byte	2
 935 01aa 8D       		.byte	-115
 936 01ab 08       		.byte	8
 937 01ac C0       		.byte	-64
 938 01ad 06       		.byte	6
 939 01ae D4       		.byte	-44
ARM GAS  C:\Users\bogda\AppData\Local\Temp\ccSIJY9Y.s 			page 29


 940 01af 06       		.byte	6
 941 01b0 D6       		.byte	-42
 942 01b1 01       		.byte	1
 943 01b2 E4       		.byte	-28
 944 01b3 08       		.byte	8
 945 01b4 E6       		.byte	-26
 946 01b5 04       		.byte	4
 947 01b6 AB       		.byte	-85
 948 01b7 80       		.byte	-128
 949 01b8 AD       		.byte	-83
 950 01b9 20       		.byte	32
 951 01ba B7       		.byte	-73
 952 01bb 02       		.byte	2
 953 01bc E8       		.byte	-24
 954 01bd 08       		.byte	8
 955 01be 02       		.byte	2
 956 01bf 01       		.byte	1
 957 01c0 11       		.byte	17
 958 01c1 01       		.byte	1
 959 01c2 0000     		.space	2
 960              		.type	cy_cfg_addr_table.4910, %object
 961              		.size	cy_cfg_addr_table.4910, 36
 962              	cy_cfg_addr_table.4910:
 963 01c4 27300F40 		.word	1074737191
 964 01c8 29310F40 		.word	1074737449
 965 01cc 22320F40 		.word	1074737698
 966 01d0 32330F40 		.word	1074737970
 967 01d4 0F400F40 		.word	1074741263
 968 01d8 16410F40 		.word	1074741526
 969 01dc 0C420F40 		.word	1074741772
 970 01e0 04430F40 		.word	1074742020
 971 01e4 02600F40 		.word	1074749442
 972              		.text
 973              	.Letext0:
 974              		.file 2 "c:\\program files (x86)\\cypress\\psoc creator\\4.4\\psoc creator\\import\\gnu\\arm\\5.4.
 975              		.file 3 "Generated_Source\\PSoC4\\cytypes.h"
 976              		.file 4 "Generated_Source\\PSoC4\\CyLFClk.h"
 977              		.file 5 "Generated_Source\\PSoC4\\CyLib.h"