ARM GAS  C:\Users\bogda\AppData\Local\Temp\ccODkgs6.s 			page 1


   1              		.syntax unified
   2              		.cpu cortex-m0
   3              		.fpu softvfp
   4              		.eabi_attribute 20, 1
   5              		.eabi_attribute 21, 1
   6              		.eabi_attribute 23, 3
   7              		.eabi_attribute 24, 1
   8              		.eabi_attribute 25, 1
   9              		.eabi_attribute 26, 1
  10              		.eabi_attribute 30, 1
  11              		.eabi_attribute 34, 0
  12              		.eabi_attribute 18, 4
  13              		.thumb
  14              		.syntax unified
  15              		.file	"main.c"
  16              		.text
  17              	.Ltext0:
  18              		.cfi_sections	.debug_frame
  19              		.section	.text.delay,"ax",%progbits
  20              		.align	2
  21              		.global	delay
  22              		.code	16
  23              		.thumb_func
  24              		.type	delay, %function
  25              	delay:
  26              	.LFB37:
  27              		.file 1 "main.c"
   1:main.c        **** #include "project.h"
   2:main.c        **** #include <stdio.h>
   3:main.c        **** 
   4:main.c        **** #define LOW (0)
   5:main.c        **** #define HIGH (1)
   6:main.c        **** #define NUM_ACTIONS_IN_SEQUENCE (6)
   7:main.c        **** 
   8:main.c        **** void delay();
   9:main.c        **** void report_incorrect();
  10:main.c        **** void report_correct();
  11:main.c        **** int check();
  12:main.c        **** int next_seq(int *seq, int size, int max_number);
  13:main.c        **** 
  14:main.c        **** int main(void)
  15:main.c        **** {
  16:main.c        ****     CyGlobalIntEnable;
  17:main.c        ****     
  18:main.c        ****     UART_Start();
  19:main.c        ****     
  20:main.c        ****     Pin_OK_Write(HIGH);
  21:main.c        ****     Pin_ERR_Write(HIGH);
  22:main.c        **** 
  23:main.c        ****     for(;;)
  24:main.c        ****     {
  25:main.c        **** start_outer_loop:;
  26:main.c        ****         uint8_t cur_d = 0;
  27:main.c        ****         int cur_c = 1;
  28:main.c        ****         D_Reg_Write(0b00000000);
  29:main.c        ****         C_Reg_Write(0b0);
  30:main.c        ****         delay();
ARM GAS  C:\Users\bogda\AppData\Local\Temp\ccODkgs6.s 			page 2


  31:main.c        ****         C_Reg_Write(0b1);
  32:main.c        ****         delay();
  33:main.c        ****         if (!check()) {
  34:main.c        ****             report_incorrect();
  35:main.c        ****         }
  36:main.c        ****         int seq_of_actions[NUM_ACTIONS_IN_SEQUENCE] = {0};
  37:main.c        ****         do {
  38:main.c        ****             for (int num_action = 0; num_action < NUM_ACTIONS_IN_SEQUENCE; num_action++) {
  39:main.c        ****                 int action_code = seq_of_actions[num_action];
  40:main.c        ****                 if (action_code == 8) {
  41:main.c        ****                     cur_c = !cur_c;
  42:main.c        ****                 } else {
  43:main.c        ****                     cur_d = cur_d ^ (0b1 << action_code);
  44:main.c        ****                 }
  45:main.c        ****                 D_Reg_Write(cur_d);
  46:main.c        ****                 C_Reg_Write(cur_c);
  47:main.c        ****                 delay();
  48:main.c        ****                 
  49:main.c        ****                 
  50:main.c        ****                 if (!check()) {
  51:main.c        ****                     report_incorrect();
  52:main.c        ****                     goto start_outer_loop;
  53:main.c        ****                 }
  54:main.c        ****             }
  55:main.c        ****         } while (next_seq(seq_of_actions, NUM_ACTIONS_IN_SEQUENCE, 8));
  56:main.c        ****         report_correct();
  57:main.c        ****     }
  58:main.c        **** }
  59:main.c        **** 
  60:main.c        **** void delay() 
  61:main.c        **** {
  28              		.loc 1 61 0
  29              		.cfi_startproc
  30              		@ args = 0, pretend = 0, frame = 0
  31              		@ frame_needed = 0, uses_anonymous_args = 0
  32 0000 10B5     		push	{r4, lr}
  33              		.cfi_def_cfa_offset 8
  34              		.cfi_offset 4, -8
  35              		.cfi_offset 14, -4
  62:main.c        ****     CyDelayCycles(1);
  36              		.loc 1 62 0
  37 0002 0120     		movs	r0, #1
  38 0004 FFF7FEFF 		bl	CyDelayCycles
  39              	.LVL0:
  63:main.c        **** }
  40              		.loc 1 63 0
  41              		@ sp needed
  42 0008 10BD     		pop	{r4, pc}
  43              		.cfi_endproc
  44              	.LFE37:
  45              		.size	delay, .-delay
  46 000a C046     		.section	.text.report_incorrect,"ax",%progbits
  47              		.align	2
  48              		.global	report_incorrect
  49              		.code	16
  50              		.thumb_func
  51              		.type	report_incorrect, %function
ARM GAS  C:\Users\bogda\AppData\Local\Temp\ccODkgs6.s 			page 3


  52              	report_incorrect:
  53              	.LFB38:
  64:main.c        **** 
  65:main.c        **** void report_incorrect()
  66:main.c        **** {
  54              		.loc 1 66 0
  55              		.cfi_startproc
  56              		@ args = 0, pretend = 0, frame = 0
  57              		@ frame_needed = 0, uses_anonymous_args = 0
  58 0000 10B5     		push	{r4, lr}
  59              		.cfi_def_cfa_offset 8
  60              		.cfi_offset 4, -8
  61              		.cfi_offset 14, -4
  67:main.c        ****     Pin_ERR_Write(LOW);
  62              		.loc 1 67 0
  63 0002 0020     		movs	r0, #0
  64 0004 FFF7FEFF 		bl	Pin_ERR_Write
  65              	.LVL1:
  68:main.c        ****     CyDelay(5000);
  66              		.loc 1 68 0
  67 0008 0348     		ldr	r0, .L3
  68 000a FFF7FEFF 		bl	CyDelay
  69              	.LVL2:
  69:main.c        ****     Pin_ERR_Write(HIGH);
  70              		.loc 1 69 0
  71 000e 0120     		movs	r0, #1
  72 0010 FFF7FEFF 		bl	Pin_ERR_Write
  73              	.LVL3:
  70:main.c        **** }
  74              		.loc 1 70 0
  75              		@ sp needed
  76 0014 10BD     		pop	{r4, pc}
  77              	.L4:
  78 0016 C046     		.align	2
  79              	.L3:
  80 0018 88130000 		.word	5000
  81              		.cfi_endproc
  82              	.LFE38:
  83              		.size	report_incorrect, .-report_incorrect
  84              		.section	.text.report_correct,"ax",%progbits
  85              		.align	2
  86              		.global	report_correct
  87              		.code	16
  88              		.thumb_func
  89              		.type	report_correct, %function
  90              	report_correct:
  91              	.LFB39:
  71:main.c        **** 
  72:main.c        **** void report_correct()
  73:main.c        **** {
  92              		.loc 1 73 0
  93              		.cfi_startproc
  94              		@ args = 0, pretend = 0, frame = 0
  95              		@ frame_needed = 0, uses_anonymous_args = 0
  96 0000 10B5     		push	{r4, lr}
  97              		.cfi_def_cfa_offset 8
  98              		.cfi_offset 4, -8
ARM GAS  C:\Users\bogda\AppData\Local\Temp\ccODkgs6.s 			page 4


  99              		.cfi_offset 14, -4
  74:main.c        ****     Pin_OK_Write(LOW);
 100              		.loc 1 74 0
 101 0002 0020     		movs	r0, #0
 102 0004 FFF7FEFF 		bl	Pin_OK_Write
 103              	.LVL4:
  75:main.c        ****     CyDelay(5000);
 104              		.loc 1 75 0
 105 0008 0348     		ldr	r0, .L6
 106 000a FFF7FEFF 		bl	CyDelay
 107              	.LVL5:
  76:main.c        ****     Pin_OK_Write(HIGH);
 108              		.loc 1 76 0
 109 000e 0120     		movs	r0, #1
 110 0010 FFF7FEFF 		bl	Pin_OK_Write
 111              	.LVL6:
  77:main.c        **** }
 112              		.loc 1 77 0
 113              		@ sp needed
 114 0014 10BD     		pop	{r4, pc}
 115              	.L7:
 116 0016 C046     		.align	2
 117              	.L6:
 118 0018 88130000 		.word	5000
 119              		.cfi_endproc
 120              	.LFE39:
 121              		.size	report_correct, .-report_correct
 122              		.section	.text.check,"ax",%progbits
 123              		.align	2
 124              		.global	check
 125              		.code	16
 126              		.thumb_func
 127              		.type	check, %function
 128              	check:
 129              	.LFB40:
  78:main.c        **** 
  79:main.c        **** int check()
  80:main.c        **** {
 130              		.loc 1 80 0
 131              		.cfi_startproc
 132              		@ args = 0, pretend = 0, frame = 0
 133              		@ frame_needed = 0, uses_anonymous_args = 0
 134 0000 10B5     		push	{r4, lr}
 135              		.cfi_def_cfa_offset 8
 136              		.cfi_offset 4, -8
 137              		.cfi_offset 14, -4
  81:main.c        ****     return (Eq_Reg_Read() & 0b1) == 0b1;
 138              		.loc 1 81 0
 139 0002 FFF7FEFF 		bl	Eq_Reg_Read
 140              	.LVL7:
 141 0006 0123     		movs	r3, #1
 142 0008 1840     		ands	r0, r3
  82:main.c        **** }
 143              		.loc 1 82 0
 144              		@ sp needed
 145 000a 10BD     		pop	{r4, pc}
 146              		.cfi_endproc
ARM GAS  C:\Users\bogda\AppData\Local\Temp\ccODkgs6.s 			page 5


 147              	.LFE40:
 148              		.size	check, .-check
 149              		.section	.text.next_seq,"ax",%progbits
 150              		.align	2
 151              		.global	next_seq
 152              		.code	16
 153              		.thumb_func
 154              		.type	next_seq, %function
 155              	next_seq:
 156              	.LFB41:
  83:main.c        **** 
  84:main.c        **** int next_seq(int *seq, int size, int max_number) {
 157              		.loc 1 84 0
 158              		.cfi_startproc
 159              		@ args = 0, pretend = 0, frame = 0
 160              		@ frame_needed = 0, uses_anonymous_args = 0
 161              	.LVL8:
 162 0000 70B5     		push	{r4, r5, r6, lr}
 163              		.cfi_def_cfa_offset 16
 164              		.cfi_offset 4, -16
 165              		.cfi_offset 5, -12
 166              		.cfi_offset 6, -8
 167              		.cfi_offset 14, -4
 168 0002 0500     		movs	r5, r0
 169 0004 1400     		movs	r4, r2
  85:main.c        ****     if (size == 0) {
 170              		.loc 1 85 0
 171 0006 0029     		cmp	r1, #0
 172 0008 0FD0     		beq	.L12
  86:main.c        ****         return 0;
  87:main.c        ****     }
  88:main.c        ****     if (!next_seq(seq + 1, size - 1, max_number)) {
 173              		.loc 1 88 0
 174 000a 0139     		subs	r1, r1, #1
 175              	.LVL9:
 176 000c 0430     		adds	r0, r0, #4
 177              	.LVL10:
 178 000e FFF7FEFF 		bl	next_seq
 179              	.LVL11:
 180 0012 0028     		cmp	r0, #0
 181 0014 0BD1     		bne	.L13
  89:main.c        ****         if (seq[0] == max_number) {
 182              		.loc 1 89 0
 183 0016 2B68     		ldr	r3, [r5]
 184 0018 9C42     		cmp	r4, r3
 185 001a 02D1     		bne	.L11
  90:main.c        ****             seq[0] = 0;
 186              		.loc 1 90 0
 187 001c 0023     		movs	r3, #0
 188 001e 2B60     		str	r3, [r5]
  91:main.c        ****             return 0;
 189              		.loc 1 91 0
 190 0020 06E0     		b	.L10
 191              	.L11:
  92:main.c        ****         } else {
  93:main.c        ****             seq[0]++;
 192              		.loc 1 93 0
ARM GAS  C:\Users\bogda\AppData\Local\Temp\ccODkgs6.s 			page 6


 193 0022 0133     		adds	r3, r3, #1
 194 0024 2B60     		str	r3, [r5]
  94:main.c        ****             return 1;
 195              		.loc 1 94 0
 196 0026 0120     		movs	r0, #1
 197 0028 02E0     		b	.L10
 198              	.LVL12:
 199              	.L12:
  86:main.c        ****     }
 200              		.loc 1 86 0
 201 002a 0020     		movs	r0, #0
 202              	.LVL13:
 203 002c 00E0     		b	.L10
 204              	.LVL14:
 205              	.L13:
  95:main.c        ****         }
  96:main.c        ****     }
  97:main.c        ****     return 1;
 206              		.loc 1 97 0
 207 002e 0120     		movs	r0, #1
 208              	.L10:
  98:main.c        **** }
 209              		.loc 1 98 0
 210              		@ sp needed
 211              	.LVL15:
 212              	.LVL16:
 213 0030 70BD     		pop	{r4, r5, r6, pc}
 214              		.cfi_endproc
 215              	.LFE41:
 216              		.size	next_seq, .-next_seq
 217 0032 C046     		.section	.text.main,"ax",%progbits
 218              		.align	2
 219              		.global	main
 220              		.code	16
 221              		.thumb_func
 222              		.type	main, %function
 223              	main:
 224              	.LFB36:
  15:main.c        ****     CyGlobalIntEnable;
 225              		.loc 1 15 0
 226              		.cfi_startproc
 227              		@ args = 0, pretend = 0, frame = 24
 228              		@ frame_needed = 0, uses_anonymous_args = 0
 229 0000 70B5     		push	{r4, r5, r6, lr}
 230              		.cfi_def_cfa_offset 16
 231              		.cfi_offset 4, -16
 232              		.cfi_offset 5, -12
 233              		.cfi_offset 6, -8
 234              		.cfi_offset 14, -4
 235 0002 86B0     		sub	sp, sp, #24
 236              		.cfi_def_cfa_offset 40
  16:main.c        ****     
 237              		.loc 1 16 0
 238              		.syntax divided
 239              	@ 16 "main.c" 1
 240 0004 62B6     		CPSIE   i
 241              	@ 0 "" 2
ARM GAS  C:\Users\bogda\AppData\Local\Temp\ccODkgs6.s 			page 7


  18:main.c        ****     
 242              		.loc 1 18 0
 243              		.thumb
 244              		.syntax unified
 245 0006 FFF7FEFF 		bl	UART_Start
 246              	.LVL17:
  20:main.c        ****     Pin_ERR_Write(HIGH);
 247              		.loc 1 20 0
 248 000a 0120     		movs	r0, #1
 249 000c FFF7FEFF 		bl	Pin_OK_Write
 250              	.LVL18:
  21:main.c        **** 
 251              		.loc 1 21 0
 252 0010 0120     		movs	r0, #1
 253 0012 FFF7FEFF 		bl	Pin_ERR_Write
 254              	.LVL19:
 255              	.L15:
 256              	.LBB2:
  28:main.c        ****         C_Reg_Write(0b0);
 257              		.loc 1 28 0
 258 0016 0020     		movs	r0, #0
 259 0018 FFF7FEFF 		bl	D_Reg_Write
 260              	.LVL20:
  29:main.c        ****         delay();
 261              		.loc 1 29 0
 262 001c 0020     		movs	r0, #0
 263 001e FFF7FEFF 		bl	C_Reg_Write
 264              	.LVL21:
  30:main.c        ****         C_Reg_Write(0b1);
 265              		.loc 1 30 0
 266 0022 FFF7FEFF 		bl	delay
 267              	.LVL22:
  31:main.c        ****         delay();
 268              		.loc 1 31 0
 269 0026 0120     		movs	r0, #1
 270 0028 FFF7FEFF 		bl	C_Reg_Write
 271              	.LVL23:
  32:main.c        ****         if (!check()) {
 272              		.loc 1 32 0
 273 002c FFF7FEFF 		bl	delay
 274              	.LVL24:
  33:main.c        ****             report_incorrect();
 275              		.loc 1 33 0
 276 0030 FFF7FEFF 		bl	check
 277              	.LVL25:
 278 0034 0028     		cmp	r0, #0
 279 0036 01D1     		bne	.L17
  34:main.c        ****         }
 280              		.loc 1 34 0
 281 0038 FFF7FEFF 		bl	report_incorrect
 282              	.LVL26:
 283              	.L17:
  36:main.c        ****         do {
 284              		.loc 1 36 0
 285 003c 1822     		movs	r2, #24
 286 003e 0021     		movs	r1, #0
 287 0040 6846     		mov	r0, sp
ARM GAS  C:\Users\bogda\AppData\Local\Temp\ccODkgs6.s 			page 8


 288 0042 FFF7FEFF 		bl	memset
 289              	.LVL27:
  27:main.c        ****         D_Reg_Write(0b00000000);
 290              		.loc 1 27 0
 291 0046 0124     		movs	r4, #1
  26:main.c        ****         int cur_c = 1;
 292              		.loc 1 26 0
 293 0048 0026     		movs	r6, #0
 294              	.LVL28:
 295              	.L23:
 296              	.LBB3:
  38:main.c        ****                 int action_code = seq_of_actions[num_action];
 297              		.loc 1 38 0
 298 004a 0025     		movs	r5, #0
 299 004c 1CE0     		b	.L18
 300              	.LVL29:
 301              	.L22:
 302              	.LBB4:
  39:main.c        ****                 if (action_code == 8) {
 303              		.loc 1 39 0
 304 004e AB00     		lsls	r3, r5, #2
 305 0050 6A46     		mov	r2, sp
 306 0052 9B58     		ldr	r3, [r3, r2]
 307              	.LVL30:
  40:main.c        ****                     cur_c = !cur_c;
 308              		.loc 1 40 0
 309 0054 082B     		cmp	r3, #8
 310 0056 03D1     		bne	.L19
  41:main.c        ****                 } else {
 311              		.loc 1 41 0
 312 0058 6342     		rsbs	r3, r4, #0
 313 005a 5C41     		adcs	r4, r4, r3
 314              	.LVL31:
 315 005c E4B2     		uxtb	r4, r4
 316              	.LVL32:
 317 005e 03E0     		b	.L20
 318              	.LVL33:
 319              	.L19:
  43:main.c        ****                 }
 320              		.loc 1 43 0
 321 0060 0120     		movs	r0, #1
 322 0062 9840     		lsls	r0, r0, r3
 323 0064 7040     		eors	r0, r6
 324 0066 C6B2     		uxtb	r6, r0
 325              	.LVL34:
 326              	.L20:
  45:main.c        ****                 C_Reg_Write(cur_c);
 327              		.loc 1 45 0
 328 0068 3000     		movs	r0, r6
 329 006a FFF7FEFF 		bl	D_Reg_Write
 330              	.LVL35:
  46:main.c        ****                 delay();
 331              		.loc 1 46 0
 332 006e E0B2     		uxtb	r0, r4
 333 0070 FFF7FEFF 		bl	C_Reg_Write
 334              	.LVL36:
  47:main.c        ****                 
ARM GAS  C:\Users\bogda\AppData\Local\Temp\ccODkgs6.s 			page 9


 335              		.loc 1 47 0
 336 0074 FFF7FEFF 		bl	delay
 337              	.LVL37:
  50:main.c        ****                     report_incorrect();
 338              		.loc 1 50 0
 339 0078 FFF7FEFF 		bl	check
 340              	.LVL38:
 341 007c 0028     		cmp	r0, #0
 342 007e 02D1     		bne	.L21
  51:main.c        ****                     goto start_outer_loop;
 343              		.loc 1 51 0
 344 0080 FFF7FEFF 		bl	report_incorrect
 345              	.LVL39:
  52:main.c        ****                 }
 346              		.loc 1 52 0
 347 0084 C7E7     		b	.L15
 348              	.L21:
 349              	.LBE4:
  38:main.c        ****                 int action_code = seq_of_actions[num_action];
 350              		.loc 1 38 0 discriminator 2
 351 0086 0135     		adds	r5, r5, #1
 352              	.LVL40:
 353              	.L18:
  38:main.c        ****                 int action_code = seq_of_actions[num_action];
 354              		.loc 1 38 0 is_stmt 0 discriminator 1
 355 0088 052D     		cmp	r5, #5
 356 008a E0DD     		ble	.L22
 357              	.LBE3:
  55:main.c        ****         report_correct();
 358              		.loc 1 55 0 is_stmt 1
 359 008c 0822     		movs	r2, #8
 360 008e 0621     		movs	r1, #6
 361 0090 6846     		mov	r0, sp
 362 0092 FFF7FEFF 		bl	next_seq
 363              	.LVL41:
 364 0096 0028     		cmp	r0, #0
 365 0098 D7D1     		bne	.L23
  56:main.c        ****     }
 366              		.loc 1 56 0
 367 009a FFF7FEFF 		bl	report_correct
 368              	.LVL42:
 369              	.L16:
 370              	.LBE2:
  57:main.c        **** }
 371              		.loc 1 57 0
 372 009e BAE7     		b	.L15
 373              		.cfi_endproc
 374              	.LFE36:
 375              		.size	main, .-main
 376              		.text
 377              	.Letext0:
 378              		.file 2 "c:\\program files (x86)\\cypress\\psoc creator\\4.4\\psoc creator\\import\\gnu\\arm\\5.4.
 379              		.file 3 "c:\\program files (x86)\\cypress\\psoc creator\\4.4\\psoc creator\\import\\gnu\\arm\\5.4.
 380              		.file 4 "Generated_Source\\PSoC4/CyLib.h"
 381              		.file 5 "Generated_Source\\PSoC4/Pin_ERR.h"
 382              		.file 6 "Generated_Source\\PSoC4/Pin_OK.h"
 383              		.file 7 "Generated_Source\\PSoC4/Eq_Reg.h"
ARM GAS  C:\Users\bogda\AppData\Local\Temp\ccODkgs6.s 			page 10


 384              		.file 8 "Generated_Source\\PSoC4/D_Reg.h"
 385              		.file 9 "Generated_Source\\PSoC4/C_Reg.h"
 386              		.file 10 "Generated_Source\\PSoC4/UART.h"